gplink-0.13.7 beta
Copyright (c) 1998-2005 gputils project
Listing File Generated: 1-10-2010  16:13:46
 
 
Address  Value    Disassembly              Source
-------  -----    -----------              ------
                                           ;==============================================================================
                                           ;    serial.asm
                                           ;==============================================================================
                                           
                                           list p=18f4520
                                           #include <p18f4520.inc>
                                                   LIST
                                           
                                           ;==========================================================================
                                           ;  MPASM PIC18F4520 processor include
                                           ; 
                                           ;  (c) Copyright 1999-2007 Microchip Technology, All rights reserved
                                           ;==========================================================================
                                           
                                                   NOLIST
                                           
                                           ; -- Externals From main.asm --------------------------------------------------
                                               extern      MAIN_TEMP
                                           
                                           ; -- Externals From host_bus.asm ----------------------------------------------
                                               extern      HI_ADDR
                                               extern      LO_ADDR
                                               extern      DREG
                                           
                                               extern      ensure_master
                                               extern      revert_master
                                               extern      io_read
                                               extern      io_write
                                               extern      mem_read
                                               extern      mem_write
                                               extern      get_reset
                                               extern      get_slave
                                               extern      get_dma
                                           
                                           ; -- Externals From boot.asm --------------------------------------------------
                                               extern      boot_update
                                           
                                             UDATA
                                           
                                           RX_MODE RES     1
                                           ; -- RX MODE CONSTANTS --------------------------------------------------------
                                           RX_COM  EQU     0
                                           RX_LEN  EQU     1
                                           RX_DAT  EQU     2
                                           RX_CKS  EQU     3
                                           RX_BSY  EQU     4
                                           
                                           RX_COMMAND      RES     1
                                           RX_COUNT        RES     1
                                           RX_CHECKSUM     RES     1
                                           RX_FLAGS        RES     1
                                           ; -- FLAG VALUES --------------------------------------------------------------
                                           CHECKSUM_FAIL   EQU     0x01
                                           
                                           TX_CHECKSUM     RES     1
                                           TX_COUNT        RES     1
                                           JUMP_REG        RES     1
                                             
                                             CODE
                                           ;== Serial Console Functions ==================================================
                                           
                                           ;******************************************************************************
                                           ;*                                                                            *
                                           ;* serial_init - set up the serial port for PC comms                          *
                                           ;*                                                                            *
                                           ;* Inputs:  NONE                                                              *
                                           ;* Outputs: NONE                                                              *
                                           ;* Called:                                                                    *
                                           ;* Changes: SPBRG, RCSTA, TXSTA, BAUDCON, TRISC, RCON, PIR1, PIE1, INTCON     *
                                           ;*                                                                            *
                                           ;******************************************************************************
                                           
                                           serial_init
000036   6b84     clrf	0x84, 0x1               clrf        RX_FLAGS
000038   0e01     movlw	0x1                    movlw       0x01
00003a   6eea     movwf	0xea, 0                movwf       FSR0H           ; set FSR0 to BANK1, RX Buffer
00003c   6ae9     clrf	0xe9, 0                 clrf        FSR0L
00003e   0e02     movlw	0x2                    movlw       0x02
000040   6ee2     movwf	0xe2, 0                movwf       FSR1H           ; set FSR1 to BANK2, TX Buffer
000042   6ae1     clrf	0xe1, 0                 clrf        FSR1L
000044   0e00     movlw	0                      movlw       RX_COM
000046   6f80     movwf	0x80, 0x1              movwf       RX_MODE         ; set RX_MODE to look for a command
                                               ; first make sure that the RX and TX are both set input, hardware changes
                                               ; this once the UART is enabled
000048   0ec0     movlw	0xc0                   movlw       b'11000000'
00004a   1294     iorwf	0x94, 0x1, 0           iorwf       TRISC,f
                                           
                                               ; next set the UART up
00004c   0e10     movlw	0x10                   movlw       0x10
00004e   6eaf     movwf	0xaf, 0                movwf       SPBRG
000050   0e04     movlw	0x4                    movlw       0x04
000052   6eb0     movwf	0xb0, 0                movwf       SPBRGH          ; 9600 baud high speed 16 bit mode
000054   0e24     movlw	0x24                   movlw       b'00100100'     ; enable sending, 8-bit, high speed baud rate
000056   6eac     movwf	0xac, 0                movwf       TXSTA
000058   0e10     movlw	0x10                   movlw       b'00010000'     ; enable receiving 8-bit
00005a   6eab     movwf	0xab, 0                movwf       RCSTA
00005c   0e08     movlw	0x8                    movlw       b'00001000'     ; no-auto sensing - 16 bit baud rate
00005e   6eb8     movwf	0xb8, 0                movwf       BAUDCON
000060   8eab     bsf	0xab, 0x7, 0             bsf         RCSTA,SPEN      ; enable the serial port
                                           
                                               ; set up interrupt on receive
000062   8ed0     bsf	0xd0, 0x7, 0             bsf         RCON, IPEN
000064   9a9e     bcf	0x9e, 0x5, 0             bcf         PIR1, RCIF
000066   8a9d     bsf	0x9d, 0x5, 0             bsf         PIE1, RCIE
000068   8ef2     bsf	0xf2, 0x7, 0             bsf         INTCON, GIEH    ; enable global interrupts
00006a   0012     return	0                     return
                                           
                                           ;******************************************************************************
                                           ;*                                                                            *
                                           ;* serial_send - send the contents of W via the UART                          *
                                           ;*                                                                            *
                                           ;* Inputs:  Byte to send in W                                                 *
                                           ;* Outputs: NONE                                                              *
                                           ;* Called:                                                                    *
                                           ;* Changes: TXREG                                                             *
                                           ;*                                                                            *
                                           ;******************************************************************************
                                           
                                           serial_send
00006c   a89e     btfss	0x9e, 0x4, 0           btfss PIR1,TXIF     ;test transmit interrupt flag
00006e   d7fe     bra	0x6c                     bra serial_send     ;if clear, TXREG is full
000070   6ead     movwf	0xad, 0                movwf TXREG         ;if set, TXREG is empty, so copy data into it
000072   0012     return	0                     return
                                           
                                           ; -- serial_tx_send_packet ----------------------------------------------------
                                           
                                           serial_tx_send_packet
                                               ; send a whole message packet from the TX Buffer
                                               ; first set the TX pointer to the start of the buffer
000074   6ae1     clrf	0xe1, 0                 clrf        FSR1L
                                               ; send the first byte (the command code)
000076   50e6     movf	0xe6, 0, 0              movf        POSTINC1,w
000078   ec36     call	0x6c, 0                 call        serial_send
00007a   f000
                                               ; now send the length byte, and initialise the counter
00007c   50e6     movf	0xe6, 0, 0              movf        POSTINC1,w
00007e   ec36     call	0x6c, 0                 call        serial_send
000080   f000
000082   6f86     movwf	0x86, 0x1              movwf       TX_COUNT
                                           
000084   0bff     andlw	0xff                   andlw       0xFF
000086   e005     bz	0x92                      bz          serial_tx_send_packet_checksum  ; if length is zero skip data loop
                                               ; now we loop over send and decrement the counter
                                           serial_tx_send_packet_data_loop
000088   50e6     movf	0xe6, 0, 0              movf        POSTINC1,w
00008a   ec36     call	0x6c, 0                 call        serial_send
00008c   f000
00008e   2f86     decfsz	0x86, 0x1, 0x1        decfsz      TX_COUNT,f
000090   d7fb     bra	0x88                     bra         serial_tx_send_packet_data_loop
                                               
                                           serial_tx_send_packet_checksum
000092   9a8b     bcf	0x8b, 0x5, 0             bcf         LATC,5
                                               ; lastly send the checksum
000094   50e6     movf	0xe6, 0, 0              movf        POSTINC1,w
000096   ec36     call	0x6c, 0                 call        serial_send
000098   f000
                                           
                                               ; done, return
00009a   0012     return	0                     return
                                           
                                           ;******************************************************************************
                                           ;*                                                                            *
                                           ;* serial_rx_int - UART receive interrupt routine                             *
                                           ;*                                                                            *
                                           ;* Inputs:  None                                                              *
                                           ;* Outputs: None                                                              *
                                           ;* Called:                                                                    *
                                           ;* Changes: PIR1, w                                                           *
                                           ;*                                                                            *
                                           ;******************************************************************************
                                           
                                           ; called later but must be on before the page to avoid relative branch errors
                                           ; !! deprecated !!
                                           ; serial_nak_exit
                                           ;     movlw       0x15
                                           ;     call        serial_send
                                           ;     return
                                           
                                           serial_rx_int_error
00009c   98ab     bcf	0xab, 0x4, 0             bcf         RCSTA,CREN              ;clear the CREN bit to clear errors
00009e   0e15     movlw	0x15                   movlw       0x15                    ;prepare a NAK symbol
0000a0   ec36     call	0x6c, 0                 call        serial_send             ;and send it
0000a2   f000
0000a4   88ab     bsf	0xab, 0x4, 0             bsf         RCSTA,CREN              ;re-enable receiving
0000a6   50ae     movf	0xae, 0, 0              movf        RCREG,w                 ;have to read the RCREG to clear the interrupt
0000a8   0012     return	0                     return
                                           
                                           serial_rx_int
0000aa   0e06     movlw	0x6                    movlw       b'00000110'
0000ac   14ab     andwf	0xab, 0, 0             andwf       RCSTA,w                 ;test if either of the error bits are set
0000ae   e1f6     bnz	0x9c                     bnz         serial_rx_int_error     ;if result is not zero an error occurred
                                           serial_rx_int_no_error                  ;if no error occurred, just echo input
                                           
                                               ; if RX_MODE & FC != 0 -> error message, busy
0000b0   0efc     movlw	0xfc                   movlw       0xFC                    ; three non-busy modes
0000b2   1580     andwf	0x80, 0, 0x1           andwf       RX_MODE,w               ; don't change the RX_MODE
0000b4   e1f3     bnz	0x9c                     bnz         serial_rx_int_error     ; busy mode so reply NAK, we don't want data at the moment
                                           
0000b6   0e00     movlw	0                      movlw       UPPER serial_rx_jump_table
0000b8   6efb     movwf	0xfb, 0                movwf       PCLATU
0000ba   0e00     movlw	0                      movlw       HIGH serial_rx_jump_table
0000bc   6efa     movwf	0xfa, 0                movwf       PCLATH
0000be   5180     movf	0x80, 0, 0x1            movf        RX_MODE,w
0000c0   46e8     rlncf	0xe8, 0x1, 0           rlncf       WREG,f
0000c2   46e8     rlncf	0xe8, 0x1, 0           rlncf       WREG,f
0000c4   ef64     goto	0xc8                    goto        serial_rx_jump_table
0000c6   f000
                                           
                                               PAGE            ; doing a jump table need to make sure it's all in one page of memory
                                           
                                           serial_rx_jump_table
0000c8   26f9     addwf	0xf9, 0x1, 0           addwf       PCL,f
0000ca   ef6d     goto	0xda                    goto        serial_rx_command       ;0
0000cc   f000
0000ce   ef73     goto	0xe6                    goto        serial_rx_length        ;1
0000d0   f000
0000d2   ef7d     goto	0xfa                    goto        serial_rx_data          ;2
0000d4   f000
0000d6   ef84     goto	0x108                   goto        serial_rx_checksum      ;3
0000d8   f000
                                           
                                           ;command byte
                                           serial_rx_command
                                               ; store the command
0000da   50ae     movf	0xae, 0, 0              movf        RCREG,w
0000dc   6f81     movwf	0x81, 0x1              movwf       RX_COMMAND    
                                               ; put it in the RX buffer
0000de   6eee     movwf	0xee, 0                movwf       POSTINC0
                                               ; also store it to start the checksum
0000e0   6f83     movwf	0x83, 0x1              movwf       RX_CHECKSUM
                                               ; change to length mode
0000e2   2b80     incf	0x80, 0x1, 0x1          incf        RX_MODE,f
                                               ; return
0000e4   0012     return	0                     return
                                           
                                           ; length byte
                                           serial_rx_length
                                               ; set the byte count
0000e6   50ae     movf	0xae, 0, 0              movf        RCREG,w
0000e8   6f82     movwf	0x82, 0x1              movwf       RX_COUNT
                                               ; store this in the RX buffer too
0000ea   6eee     movwf	0xee, 0                movwf       POSTINC0
                                               ; xor the length for checksum
0000ec   1b83     xorwf	0x83, 0x1, 0x1         xorwf       RX_CHECKSUM,f
                                               ; change to data mode
0000ee   2b80     incf	0x80, 0x1, 0x1          incf        RX_MODE,f
                                               ; if the byte count is 0 skip data mode
0000f0   0e00     movlw	0                      movlw       0x00
0000f2   6382     cpfseq	0x82, 0x1             cpfseq      RX_COUNT
0000f4   0012     return	0                     return
0000f6   2b80     incf	0x80, 0x1, 0x1          incf        RX_MODE,f       ; inc to checksum mode
0000f8   0012     return	0                     return
                                           
                                           serial_rx_data
                                               ; store the data byte in the indirect register
0000fa   50ae     movf	0xae, 0, 0              movf        RCREG,w
0000fc   6eee     movwf	0xee, 0                movwf       POSTINC0
                                               ; update the checksum
0000fe   1b83     xorwf	0x83, 0x1, 0x1         xorwf       RX_CHECKSUM,f
                                               ; decrement the byte counter
000100   2f82     decfsz	0x82, 0x1, 0x1        decfsz      RX_COUNT,f
000102   0012     return	0                     return
                                               ; if execution got here the full count of bytes is done
000104   2b80     incf	0x80, 0x1, 0x1          incf        RX_MODE,f       ; inc to checksum mode
000106   0012     return	0                     return
                                           
                                           serial_rx_checksum
000108   50ae     movf	0xae, 0, 0              movf        RCREG,w
                                               ; keep a copy in the RX buffer
00010a   6eee     movwf	0xee, 0                movwf       POSTINC0
                                               ; do an xor with the calculated checksum so far, should result in zero
00010c   1b83     xorwf	0x83, 0x1, 0x1         xorwf       RX_CHECKSUM,f
00010e   e005     bz	0x11a                     bz          serial_rx_checksum_passed
                                               ; if execution got here the checksum failed
000110   1b83     xorwf	0x83, 0x1, 0x1         xorwf       RX_CHECKSUM,f           ; return to the calculated checksum for debug
000112   8384     bsf	0x84, 0x1, 0x1           bsf         RX_FLAGS,CHECKSUM_FAIL  ; set a flag
000114   2b80     incf	0x80, 0x1, 0x1          incf        RX_MODE,f               ; switch to busy mode
000116   6ae9     clrf	0xe9, 0                 clrf        FSR0L                   ; reset the RX pointer
000118   0012     return	0                     return
                                           
                                           serial_rx_checksum_passed
                                               ; checksum okay, set busy mode and exit
00011a   2b80     incf	0x80, 0x1, 0x1          incf        RX_MODE,f
00011c   6ae9     clrf	0xe9, 0                 clrf        FSR0L
00011e   0012     return	0                     return
                                           
                                           ; -- End of interrupt routines ------------------------------------------------
                                           
                                           ;******************************************************************************
                                           ;*                                                                            *
                                           ;*      serial_command_dispatch - checks command and branches to appropriate  *
                                           ;*                                routine                                     *
                                           ;*                                                                            *
                                           ;*      Called from the main loop to deal with any complete commands          *
                                           ;*                                                                            *
                                           ;******************************************************************************
                                           
                                           serial_command_dispatch
                                               ; first check if there is a command
000120   a580     btfss	0x80, 0x2, 0x1         btfss       RX_MODE,2       ; if bit 2 is set (mode 4 == RX_BUSY) there is a command ready
000122   0012     return	0                     return                      ; otherwise nothing to do here
                                               ; next see if there was an error in the checksum
000124   b384     btfsc	0x84, 0x1, 0x1         btfsc       RX_FLAGS,CHECKSUM_FAIL
000126   ef17     goto	0x82e                   goto        serial_error_checksum           ; if there was report the error
000128   f004
                                               ; no error, so check the command is within bounds
00012a   0ee0     movlw	0xe0                   movlw       0xE0
00012c   1581     andwf	0x81, 0, 0x1           andwf       RX_COMMAND,w
00012e   a4d8     btfss	0xd8, 0x2, 0           btfss       STATUS,Z
000130   ef2d     goto	0x85a                   goto        serial_error_bad_command        ; command was more than 31
000132   f004
                                               ; We know RX_COMMAND is a valid command now.  Jump
000134   0e00     movlw	0                      movlw       UPPER serial_command_jump_table
000136   6efb     movwf	0xfb, 0                movwf       PCLATU
000138   0e01     movlw	0x1                    movlw       HIGH serial_command_jump_table
00013a   6efa     movwf	0xfa, 0                movwf       PCLATH
00013c   5181     movf	0x81, 0, 0x1            movf        RX_COMMAND,w
00013e   46e8     rlncf	0xe8, 0x1, 0           rlncf       WREG,f
000140   46e8     rlncf	0xe8, 0x1, 0           rlncf       WREG,f
000142   efa3     goto	0x146                   goto        serial_command_jump_table
000144   f000
                                           
                                               PAGE
                                           
                                           serial_command_jump_table
000146   26f9     addwf	0xf9, 0x1, 0           addwf       PCL,f
000148   ef43     goto	0x886                   goto        serial_error_unused_command     ; 00
00014a   f004
00014c   ef43     goto	0x886                   goto        serial_error_unused_command     ; 01
00014e   f004
000150   ef25     goto	0x24a                   goto        serial_read_mem                 ; 02
000152   f001
000154   ef46     goto	0x28c                   goto        serial_write_mem                ; 03
000156   f001
000158   ef66     goto	0x2cc                   goto        serial_block_mem_read           ; 04
00015a   f001
00015c   ef91     goto	0x322                   goto        serial_block_mem_write          ; 05
00015e   f001
000160   efe4     goto	0x1c8                   goto        serial_read_io                  ; 06
000162   f000
000164   ef05     goto	0x20a                   goto        serial_write_io                 ; 07
000166   f001
000168   efb9     goto	0x372                   goto        serial_bios_update              ; 08
00016a   f001
00016c   efd4     goto	0x3a8                   goto        serial_do_commands              ; 09
00016e   f001
000170   ef43     goto	0x886                   goto        serial_error_unused_command     ; 0A
000172   f004
000174   ef43     goto	0x886                   goto        serial_error_unused_command     ; 0B
000176   f004
000178   ef43     goto	0x886                   goto        serial_error_unused_command     ; 0C
00017a   f004
00017c   ef43     goto	0x886                   goto        serial_error_unused_command     ; 0D
00017e   f004
000180   ef43     goto	0x886                   goto        serial_error_unused_command     ; 0E
000182   f004
000184   ef43     goto	0x886                   goto        serial_error_unused_command     ; 0F
000186   f004
000188   ef43     goto	0x886                   goto        serial_error_unused_command     ; 10
00018a   f004
00018c   ef43     goto	0x886                   goto        serial_error_unused_command     ; 11
00018e   f004
000190   ef43     goto	0x886                   goto        serial_error_unused_command     ; 12
000192   f004
000194   ef43     goto	0x886                   goto        serial_error_unused_command     ; 13
000196   f004
000198   ef43     goto	0x886                   goto        serial_error_unused_command     ; 14
00019a   f004
00019c   ef43     goto	0x886                   goto        serial_error_unused_command     ; 15
00019e   f004
0001a0   ef43     goto	0x886                   goto        serial_error_unused_command     ; 16
0001a2   f004
0001a4   ef43     goto	0x886                   goto        serial_error_unused_command     ; 17
0001a6   f004
0001a8   ef43     goto	0x886                   goto        serial_error_unused_command     ; 18
0001aa   f004
0001ac   ef43     goto	0x886                   goto        serial_error_unused_command     ; 19
0001ae   f004
0001b0   ef43     goto	0x886                   goto        serial_error_unused_command     ; 1A
0001b2   f004
0001b4   ef43     goto	0x886                   goto        serial_error_unused_command     ; 1B
0001b6   f004
0001b8   ef43     goto	0x886                   goto        serial_error_unused_command     ; 1C
0001ba   f004
0001bc   ef43     goto	0x886                   goto        serial_error_unused_command     ; 1D
0001be   f004
0001c0   ef43     goto	0x886                   goto        serial_error_unused_command     ; 1E
0001c2   f004
0001c4   ef43     goto	0x886                   goto        serial_error_unused_command     ; 1F
0001c6   f004
                                           
                                           ; -- serial command functions -------------------------------------------------
                                           
                                           serial_read_io
                                               ; read a single IO port to the serial host
                                               ; Address   2 bytes be
                                               ; check that the command argument length is right
0001c8   50ee     movf	0xee, 0, 0              movf        POSTINC0,w              ; command, just move the pointer
0001ca   0e02     movlw	0x2                    movlw       0x02                    ; correct number of bytes
0001cc   6f88     movwf	0x88, 0x1              movwf       MAIN_TEMP               ; put it in temp for error report
0001ce   18ee     xorwf	0xee, 0, 0             xorwf       POSTINC0,w              ; check that the length is right
0001d0   a4d8     btfss	0xd8, 0x2, 0           btfss       STATUS,Z
0001d2   ef57     goto	0x8ae                   goto        serial_error_wrong_parameters   ; long bnz
0001d4   f004
                                           ;    bnz         serial_error_wrong_parameters   ; not zero so not equal, report
                                               ; got here so length is good
                                           
                                               ; make sure we can do Z80 bus operations
0001d6   eca9     call	0x952, 0                call        ensure_master
0001d8   f004
                                           
0001da   50ee     movf	0xee, 0, 0              movf        POSTINC0,w
0001dc   6f8a     movwf	0x8a, 0x1              movwf       HI_ADDR
0001de   50ee     movf	0xee, 0, 0              movf        POSTINC0,w
0001e0   6f89     movwf	0x89, 0x1              movwf       LO_ADDR
                                               ; do the IO read
0001e2   ecef     call	0x9de, 0                call        io_read
0001e4   f004
                                           
                                               ; now return to previous master/slave mode
0001e6   ecb1     call	0x962, 0                call        revert_master
0001e8   f004
                                           
                                               ; now build a serial packet and return it to the host
0001ea   6ae1     clrf	0xe1, 0                 clrf        FSR1L
                                               ; reply with the command
0001ec   5181     movf	0x81, 0, 0x1            movf        RX_COMMAND,w
0001ee   6ee6     movwf	0xe6, 0                movwf       POSTINC1
0001f0   6f85     movwf	0x85, 0x1              movwf       TX_CHECKSUM
                                               ; now the length (1 byte)
0001f2   0e01     movlw	0x1                    movlw       0x01
0001f4   6ee6     movwf	0xe6, 0                movwf       POSTINC1
0001f6   1b85     xorwf	0x85, 0x1, 0x1         xorwf       TX_CHECKSUM,f
                                               ; now the actual data
0001f8   518b     movf	0x8b, 0, 0x1            movf        DREG,w
0001fa   6ee6     movwf	0xe6, 0                movwf       POSTINC1
0001fc   1b85     xorwf	0x85, 0x1, 0x1         xorwf       TX_CHECKSUM,f
                                               ; finally add the checksum to the packet
0001fe   5185     movf	0x85, 0, 0x1            movf        TX_CHECKSUM,w
000200   6ee6     movwf	0xe6, 0                movwf       POSTINC1
                                           
000202   ec3a     call	0x74, 0                 call        serial_tx_send_packet
000204   f000
                                           
000206   efa5     goto	0x94a                   goto        serial_handler_exit
000208   f004
                                           
                                           serial_write_io
                                               ; write a single IO port from the serial host
                                               ; Address   2 bytes be
                                               ; Data      1 byte
                                               ; check that the command argument length is right
00020a   50ee     movf	0xee, 0, 0              movf        POSTINC0,w              ; command, just move the pointer
00020c   0e03     movlw	0x3                    movlw       0x03                    ; correct number of bytes
00020e   6f88     movwf	0x88, 0x1              movwf       MAIN_TEMP               ; put it in temp for error report
000210   18ee     xorwf	0xee, 0, 0             xorwf       POSTINC0,w              ; check that the length is right
000212   a4d8     btfss	0xd8, 0x2, 0           btfss       STATUS,Z                ; long bnz
000214   ef57     goto	0x8ae                   goto        serial_error_wrong_parameters
000216   f004
                                           ;    bnz         serial_error_wrong_parameters   ; not zero so not equal, report
                                               ; got here so length is good
                                           
                                               ; make sure we can do Z80 bus operations
000218   eca9     call	0x952, 0                call        ensure_master
00021a   f004
                                           
00021c   50ee     movf	0xee, 0, 0              movf        POSTINC0,w
00021e   6f8a     movwf	0x8a, 0x1              movwf       HI_ADDR
000220   50ee     movf	0xee, 0, 0              movf        POSTINC0,w
000222   6f89     movwf	0x89, 0x1              movwf       LO_ADDR
000224   50ee     movf	0xee, 0, 0              movf        POSTINC0,w
000226   6f8b     movwf	0x8b, 0x1              movwf       DREG
                                               ; do the IO write
000228   ec00     call	0xa00, 0                call        io_write
00022a   f005
                                           
                                               ; now return to previous master/slave mode
00022c   ecb1     call	0x962, 0                call        revert_master
00022e   f004
                                           
                                               ; now build a serial packet and return it to the host (just an ack)
000230   6ae1     clrf	0xe1, 0                 clrf        FSR1L
                                               ; reply with the command
000232   5181     movf	0x81, 0, 0x1            movf        RX_COMMAND,w
000234   6ee6     movwf	0xe6, 0                movwf       POSTINC1
000236   6f85     movwf	0x85, 0x1              movwf       TX_CHECKSUM
                                               ; now the length (0 bytes)
000238   0e00     movlw	0                      movlw       0x00
00023a   6ee6     movwf	0xe6, 0                movwf       POSTINC1
00023c   1b85     xorwf	0x85, 0x1, 0x1         xorwf       TX_CHECKSUM,f
                                               ; finally add the checksum to the packet
00023e   5185     movf	0x85, 0, 0x1            movf        TX_CHECKSUM,w
000240   6ee6     movwf	0xe6, 0                movwf       POSTINC1
                                           
000242   ec3a     call	0x74, 0                 call        serial_tx_send_packet
000244   f000
                                           
000246   efa5     goto	0x94a                   goto        serial_handler_exit
000248   f004
                                           
                                           serial_read_mem
                                               ; read a single byte from system memory
                                               ; Address   2 byte be
                                           
00024a   50ee     movf	0xee, 0, 0              movf        POSTINC0,w      ; dump the command byte
00024c   0e02     movlw	0x2                    movlw       0x02            ; correct number of bytes
00024e   6f88     movwf	0x88, 0x1              movwf       MAIN_TEMP       ; put it in temp for error report
000250   18ee     xorwf	0xee, 0, 0             xorwf       POSTINC0,w      ; check the byte length of the command
000252   a4d8     btfss	0xd8, 0x2, 0           btfss       STATUS,Z        ; long bnz
000254   ef57     goto	0x8ae                   goto        serial_error_wrong_parameters
000256   f004
                                           
                                               ; make sure we can do Z80 bus operations
000258   eca9     call	0x952, 0                call        ensure_master
00025a   f004
                                           
00025c   50ee     movf	0xee, 0, 0              movf        POSTINC0,w
00025e   6f8a     movwf	0x8a, 0x1              movwf       HI_ADDR
000260   50ee     movf	0xee, 0, 0              movf        POSTINC0,w
000262   6f89     movwf	0x89, 0x1              movwf       LO_ADDR
                                           
000264   ec12     call	0xa24, 0                call        mem_read
000266   f005
                                           
000268   ecb1     call	0x962, 0                call        revert_master
00026a   f004
                                           
                                               ; reset the send buffer pointer
00026c   6ae1     clrf	0xe1, 0                 clrf        FSR1L
                                               ; reply with the command
00026e   5181     movf	0x81, 0, 0x1            movf        RX_COMMAND,w
000270   6ee6     movwf	0xe6, 0                movwf       POSTINC1
000272   6f85     movwf	0x85, 0x1              movwf       TX_CHECKSUM
                                               ; now the packet length (1 byte of data)
000274   0e01     movlw	0x1                    movlw       0x01
000276   6ee6     movwf	0xe6, 0                movwf       POSTINC1
000278   1b85     xorwf	0x85, 0x1, 0x1         xorwf       TX_CHECKSUM,f
                                               ; now the data byte
00027a   518b     movf	0x8b, 0, 0x1            movf        DREG,w
00027c   6ee6     movwf	0xe6, 0                movwf       POSTINC1
00027e   1b85     xorwf	0x85, 0x1, 0x1         xorwf       TX_CHECKSUM,f
                                               ; finally the checksum
000280   5185     movf	0x85, 0, 0x1            movf        TX_CHECKSUM,w
000282   6ee6     movwf	0xe6, 0                movwf       POSTINC1
                                               
000284   ec3a     call	0x74, 0                 call        serial_tx_send_packet
000286   f000
                                           
000288   efa5     goto	0x94a                   goto        serial_handler_exit
00028a   f004
                                           
                                           serial_write_mem
                                               ; write a single byte to system memory
                                               ; Address   2 byte be
                                               ; Data      1 byte
                                           
00028c   50ee     movf	0xee, 0, 0              movf        POSTINC0,w
00028e   0e03     movlw	0x3                    movlw       0x03            ; correct number of bytes
000290   6f88     movwf	0x88, 0x1              movwf       MAIN_TEMP
000292   18ee     xorwf	0xee, 0, 0             xorwf       POSTINC0,w
000294   a4d8     btfss	0xd8, 0x2, 0           btfss       STATUS,Z
000296   ef57     goto	0x8ae                   goto        serial_error_wrong_parameters
000298   f004
                                           
                                               ; make sure we can do Z80 bus operations
00029a   eca9     call	0x952, 0                call        ensure_master
00029c   f004
                                           
00029e   50ee     movf	0xee, 0, 0              movf        POSTINC0,w
0002a0   6f8a     movwf	0x8a, 0x1              movwf       HI_ADDR
0002a2   50ee     movf	0xee, 0, 0              movf        POSTINC0,w
0002a4   6f89     movwf	0x89, 0x1              movwf       LO_ADDR
0002a6   50ee     movf	0xee, 0, 0              movf        POSTINC0,w
0002a8   6f8b     movwf	0x8b, 0x1              movwf       DREG
                                           
0002aa   ec21     call	0xa42, 0                call        mem_write
0002ac   f005
                                           
0002ae   ecb1     call	0x962, 0                call        revert_master
0002b0   f004
                                           
0002b2   6ae1     clrf	0xe1, 0                 clrf        FSR1L
                                           
0002b4   5181     movf	0x81, 0, 0x1            movf        RX_COMMAND,w
0002b6   6ee6     movwf	0xe6, 0                movwf       POSTINC1
0002b8   6f85     movwf	0x85, 0x1              movwf       TX_CHECKSUM
                                               ; now the packet length (0 bytes, this is just an ACK)
0002ba   0e00     movlw	0                      movlw       0x00
0002bc   6ee6     movwf	0xe6, 0                movwf       POSTINC1
0002be   1b85     xorwf	0x85, 0x1, 0x1         xorwf       TX_CHECKSUM,f
                                               ; finally add the checksum
0002c0   5185     movf	0x85, 0, 0x1            movf        TX_CHECKSUM,w
0002c2   6ee6     movwf	0xe6, 0                movwf       POSTINC1
                                           
0002c4   ec3a     call	0x74, 0                 call        serial_tx_send_packet
0002c6   f000
                                           
0002c8   efa5     goto	0x94a                   goto        serial_handler_exit
0002ca   f004
                                           
                                           serial_block_mem_read
                                               ; read a block of memory addresses
                                               ; Start Address     2 byte be
                                               ; Data Count        1 byte
                                           
0002cc   50ee     movf	0xee, 0, 0              movf        POSTINC0,w
0002ce   0e03     movlw	0x3                    movlw       0x03
0002d0   6f88     movwf	0x88, 0x1              movwf       MAIN_TEMP
0002d2   18ee     xorwf	0xee, 0, 0             xorwf       POSTINC0,w
0002d4   a4d8     btfss	0xd8, 0x2, 0           btfss       STATUS,Z
0002d6   ef57     goto	0x8ae                   goto        serial_error_wrong_parameters
0002d8   f004
                                           
                                               ; check that we can do Z80 bus operations
0002da   eca9     call	0x952, 0                call        ensure_master
0002dc   f004
                                           
0002de   50ee     movf	0xee, 0, 0              movf        POSTINC0,w
0002e0   6f8a     movwf	0x8a, 0x1              movwf       HI_ADDR
0002e2   50ee     movf	0xee, 0, 0              movf        POSTINC0,w
0002e4   6f89     movwf	0x89, 0x1              movwf       LO_ADDR
0002e6   50ee     movf	0xee, 0, 0              movf        POSTINC0,w
0002e8   6f86     movwf	0x86, 0x1              movwf       TX_COUNT
                                           
                                               ; ought to check TX_COUNT length here
0002ea   0efe     movlw	0xfe                   movlw       0xFE
0002ec   6186     cpfslt	0x86, 0x1             cpfslt      TX_COUNT
0002ee   ef86     goto	0x90c                   goto        serial_error_packet_length
0002f0   f004
                                           
0002f2   6ae1     clrf	0xe1, 0                 clrf        FSR1L
                                           
0002f4   5181     movf	0x81, 0, 0x1            movf        RX_COMMAND,w
0002f6   6ee6     movwf	0xe6, 0                movwf       POSTINC1
0002f8   6f85     movwf	0x85, 0x1              movwf       TX_CHECKSUM
0002fa   5186     movf	0x86, 0, 0x1            movf        TX_COUNT,w
0002fc   6ee6     movwf	0xe6, 0                movwf       POSTINC1
0002fe   1b85     xorwf	0x85, 0x1, 0x1         xorwf       TX_CHECKSUM,f
                                           
                                               ; loop call mem_read and store in TX buffer
                                           serial_block_mem_read_loop
000300   ec12     call	0xa24, 0                call        mem_read
000302   f005
000304   518b     movf	0x8b, 0, 0x1            movf        DREG,w
000306   6ee6     movwf	0xe6, 0                movwf       POSTINC1
000308   1b85     xorwf	0x85, 0x1, 0x1         xorwf       TX_CHECKSUM,f
                                           
00030a   4b89     infsnz	0x89, 0x1, 0x1        infsnz      LO_ADDR,f
00030c   2b8a     incf	0x8a, 0x1, 0x1          incf        HI_ADDR,f
                                           
00030e   2f86     decfsz	0x86, 0x1, 0x1        decfsz      TX_COUNT,f
000310   d7f7     bra	0x300                    bra         serial_block_mem_read_loop
                                           
                                               ; release the bus
000312   ecb1     call	0x962, 0                call        revert_master
000314   f004
                                           
                                               ; add the checksum
000316   5185     movf	0x85, 0, 0x1            movf        TX_CHECKSUM,w
000318   6ee6     movwf	0xe6, 0                movwf       POSTINC1
                                           
00031a   ec3a     call	0x74, 0                 call        serial_tx_send_packet
00031c   f000
                                           
00031e   efa5     goto	0x94a                   goto        serial_handler_exit
000320   f004
                                           
                                           serial_block_mem_write
                                               ; copy a block of data from the PC into the memory
                                               ; Start Address:    2 bytes be
                                               ; Data:             Any length 1 or longer
000322   50ee     movf	0xee, 0, 0              movf        POSTINC0,w
000324   0e03     movlw	0x3                    movlw       0x03            ; minimum number of parameters
000326   6f88     movwf	0x88, 0x1              movwf       MAIN_TEMP
000328   50ee     movf	0xee, 0, 0              movf        POSTINC0,w
00032a   6f86     movwf	0x86, 0x1              movwf       TX_COUNT        ; need to keep a track of this for byte counting
00032c   0e02     movlw	0x2                    movlw       0x02            ; we're going to do a greater than, so needs to be 1 less than min
                                               ; second parameter can be any length of bytes, so the correct length is a minimum
00032e   6586     cpfsgt	0x86, 0x1             cpfsgt      TX_COUNT
000330   ef57     goto	0x8ae                   goto        serial_error_wrong_parameters
000332   f004
                                           
000334   50ee     movf	0xee, 0, 0              movf        POSTINC0,w
000336   6f8a     movwf	0x8a, 0x1              movwf       HI_ADDR
000338   50ee     movf	0xee, 0, 0              movf        POSTINC0,w
00033a   6f89     movwf	0x89, 0x1              movwf       LO_ADDR
                                           
                                               ; now set up the byte counter, length of packet data - address field
00033c   0e02     movlw	0x2                    movlw       0x02
00033e   5f86     subwf	0x86, 0x1, 0x1         subwf       TX_COUNT,f      ; take off the address length
                                           
000340   eca9     call	0x952, 0                call        ensure_master
000342   f004
                                           
                                           serial_block_mem_write_loop    
000344   50ee     movf	0xee, 0, 0              movf        POSTINC0,w
000346   6f8b     movwf	0x8b, 0x1              movwf       DREG
                                           
000348   ec21     call	0xa42, 0                call        mem_write
00034a   f005
                                           
00034c   4b89     infsnz	0x89, 0x1, 0x1        infsnz      LO_ADDR,f
00034e   2b8a     incf	0x8a, 0x1, 0x1          incf        HI_ADDR,f
                                           
000350   2f86     decfsz	0x86, 0x1, 0x1        decfsz      TX_COUNT,f
000352   d7f8     bra	0x344                    bra         serial_block_mem_write_loop
                                           
000354   ecb1     call	0x962, 0                call        revert_master
000356   f004
                                           
000358   6ae1     clrf	0xe1, 0                 clrf        FSR1L
00035a   5181     movf	0x81, 0, 0x1            movf        RX_COMMAND,w
00035c   6ee6     movwf	0xe6, 0                movwf       POSTINC1
00035e   6f85     movwf	0x85, 0x1              movwf       TX_CHECKSUM
                                           
000360   0e00     movlw	0                      movlw       0x00
000362   6ee6     movwf	0xe6, 0                movwf       POSTINC1
000364   1b85     xorwf	0x85, 0x1, 0x1         xorwf       TX_CHECKSUM,f
                                           
000366   5185     movf	0x85, 0, 0x1            movf        TX_CHECKSUM,w
000368   6ee6     movwf	0xe6, 0                movwf       POSTINC1
                                           
00036a   ec3a     call	0x74, 0                 call        serial_tx_send_packet
00036c   f000
                                           
00036e   efa5     goto	0x94a                   goto        serial_handler_exit
000370   f004
                                           
                                           serial_bios_update
                                               ; update a 128 byte block of the BIOS image in Flash
                                               ; Start Address:    2 bytes be
                                               ; Data:             128 bytes
000372   50ee     movf	0xee, 0, 0              movf        POSTINC0,w      ; command, dump this
000374   0e82     movlw	0x82                   movlw       0x82            ; 130 exact number of bytes for this packet
000376   6f88     movwf	0x88, 0x1              movwf       MAIN_TEMP       ; store the number for a possible error report
000378   18ee     xorwf	0xee, 0, 0             xorwf       POSTINC0,w      ; xor with the length from the packet
00037a   a4d8     btfss	0xd8, 0x2, 0           btfss       STATUS,Z        ; if it was zero all ok
00037c   ef57     goto	0x8ae                   goto        serial_error_wrong_parameters   ; if not send an error
00037e   f004
                                           
                                               ; need to check the address is a 128 byte aligned one
                                               ; next byte is the high address byte, can be anything up to 0x1F
000380   50ee     movf	0xee, 0, 0              movf        POSTINC0,w
000382   0be0     andlw	0xe0                   andlw       0xE0
000384   a4d8     btfss	0xd8, 0x2, 0           btfss       STATUS,Z
000386   ef8a     goto	0x914                   goto        serial_error_bios_address_space
000388   f004
                                           
00038a   50ee     movf	0xee, 0, 0              movf        POSTINC0,w
00038c   0b7f     andlw	0x7f                   andlw       0x7F            ; needs to be 128 bit aligned, so nothing in
                                                                           ; bottom 7 bits to be valid
00038e   a4d8     btfss	0xd8, 0x2, 0           btfss       STATUS,Z
000390   ef8e     goto	0x91c                   goto        serial_error_bios_address_offset
000392   f004
                                           
                                               ; looks like there's enough data and the parameters are valid.
                                               ; apply the 24K offset to point the address to the top of ROM
                                           
000394   0e02     movlw	0x2                    movlw       0x02
000396   6ee9     movwf	0xe9, 0                movwf       FSR0L
000398   0e60     movlw	0x60                   movlw       0x60
00039a   26ef     addwf	0xef, 0x1, 0           addwf       INDF0,f         ; add the offset but leave the pointer there
                                           
                                               ; call boot_update to deal with the memory writing
00039c   ec54     call	0xaa8, 0                call        boot_update
00039e   f005
                                           
                                               ; boot_update has built the response packet for us, so just send it
0003a0   ec3a     call	0x74, 0                 call        serial_tx_send_packet
0003a2   f000
                                           
0003a4   efa5     goto	0x94a                   goto        serial_handler_exit
0003a6   f004
                                           
                                           serial_do_commands
                                               ; run a no data command
0003a8   50ee     movf	0xee, 0, 0              movf        POSTINC0,w      ; command 
0003aa   0e01     movlw	0x1                    movlw       0x01
0003ac   6f88     movwf	0x88, 0x1              movwf       MAIN_TEMP
0003ae   18ee     xorwf	0xee, 0, 0             xorwf       POSTINC0,w
0003b0   a4d8     btfss	0xd8, 0x2, 0           btfss       STATUS,Z
0003b2   ef57     goto	0x8ae                   goto        serial_error_wrong_parameters
0003b4   f004
                                           
                                               ; now perform the lookup
0003b6   50ee     movf	0xee, 0, 0              movf        POSTINC0,w
0003b8   6f87     movwf	0x87, 0x1              movwf       JUMP_REG        ; copy to a holding register
0003ba   6b88     clrf	0x88, 0x1               clrf        MAIN_TEMP       ; clear for high byte of address jump
0003bc   90d8     bcf	0xd8, 0, 0               bcf         STATUS,C        ; clear the carry bit to rotate into bit 0
0003be   3787     rlcf	0x87, 0x1, 0x1          rlcf        JUMP_REG,f      ; rotate storing MSB in C == x 2
0003c0   b0d8     btfsc	0xd8, 0, 0             btfsc       STATUS,C        ; see if MSB was set
0003c2   8388     bsf	0x88, 0x1, 0x1           bsf         MAIN_TEMP,1     ; if it was add 2 to high reg (gonna x2 later)
0003c4   90d8     bcf	0xd8, 0, 0               bcf         STATUS,C        ; clear the carry bit again
0003c6   3787     rlcf	0x87, 0x1, 0x1          rlcf        JUMP_REG,f      ; rotate again x4 now
0003c8   b0d8     btfsc	0xd8, 0, 0             btfsc       STATUS,C        ; see if high bit was set
0003ca   8188     bsf	0x88, 0, 0x1             bsf         MAIN_TEMP,0     ; add 1 to the high byte register
                                           
0003cc   0ede     movlw	0xde                   movlw       LOW serial_cmd_jumps    ; copy the low address for jump table
0003ce   2787     addwf	0x87, 0x1, 0x1         addwf       JUMP_REG,f      ; add it to the jump address
0003d0   b0d8     btfsc	0xd8, 0, 0             btfsc       STATUS,C        ; see if the add overflowed
0003d2   2b88     incf	0x88, 0x1, 0x1          incf        MAIN_TEMP,f     ; if so increment the high address
0003d4   0e03     movlw	0x3                    movlw       HIGH serial_cmd_jumps   ; get the high address byte
0003d6   2588     addwf	0x88, 0, 0x1           addwf       MAIN_TEMP,w     ; add it to the high address
                                           
0003d8   6efa     movwf	0xfa, 0                movwf       PCLATH          ; put the high byte into the PCLATH
0003da   5187     movf	0x87, 0, 0x1            movf        JUMP_REG,w
0003dc   6ef9     movwf	0xf9, 0                movwf       PCL             ; put the low address into the PC
                                           
                                           serial_cmd_jumps
                                               ; now put 256 goto commands
0003de   ef6e     goto	0x8dc                   goto        serial_error_do_unknown         ; 0                     
0003e0   f004
0003e2   efef     goto	0x7de                   goto        serial_do_get_reset             ; 1                     
0003e4   f003
0003e6   eff5     goto	0x7ea                   goto        serial_do_get_dma               ; 2                     
0003e8   f003
0003ea   effb     goto	0x7f6                   goto        serial_do_get_slave             ; 3                     
0003ec   f003
0003ee   ef01     goto	0x802                   goto        serial_do_reset                 ; 4                     
0003f0   f004
0003f2   ef6e     goto	0x8dc                   goto        serial_error_do_unknown         ; 5                     
0003f4   f004
0003f6   ef6e     goto	0x8dc                   goto        serial_error_do_unknown         ; 6                     
0003f8   f004
0003fa   ef6e     goto	0x8dc                   goto        serial_error_do_unknown         ; 7                     
0003fc   f004
0003fe   ef6e     goto	0x8dc                   goto        serial_error_do_unknown         ; 8                     
000400   f004
000402   ef6e     goto	0x8dc                   goto        serial_error_do_unknown         ; 9                     
000404   f004
000406   ef6e     goto	0x8dc                   goto        serial_error_do_unknown         ; 10                    
000408   f004
00040a   ef6e     goto	0x8dc                   goto        serial_error_do_unknown         ; 11                    
00040c   f004
00040e   ef6e     goto	0x8dc                   goto        serial_error_do_unknown         ; 12                    
000410   f004
000412   ef6e     goto	0x8dc                   goto        serial_error_do_unknown         ; 13                    
000414   f004
000416   ef6e     goto	0x8dc                   goto        serial_error_do_unknown         ; 14                    
000418   f004
00041a   ef6e     goto	0x8dc                   goto        serial_error_do_unknown         ; 15                    
00041c   f004
00041e   ef6e     goto	0x8dc                   goto        serial_error_do_unknown         ; 16                    
000420   f004
000422   ef6e     goto	0x8dc                   goto        serial_error_do_unknown         ; 17                    
000424   f004
000426   ef6e     goto	0x8dc                   goto        serial_error_do_unknown         ; 18                                                                                                                                
000428   f004
00042a   ef6e     goto	0x8dc                   goto        serial_error_do_unknown         ; 19                                                                                                                                
00042c   f004
00042e   ef6e     goto	0x8dc                   goto        serial_error_do_unknown         ; 20                                                                                                                                
000430   f004
000432   ef6e     goto	0x8dc                   goto        serial_error_do_unknown         ; 21                                                                                                                                
000434   f004
000436   ef6e     goto	0x8dc                   goto        serial_error_do_unknown         ; 22                                                                                                                                
000438   f004
00043a   ef6e     goto	0x8dc                   goto        serial_error_do_unknown         ; 23                                                                                                                                
00043c   f004
00043e   ef6e     goto	0x8dc                   goto        serial_error_do_unknown         ; 24                                                                                                                                
000440   f004
000442   ef6e     goto	0x8dc                   goto        serial_error_do_unknown         ; 25                                                                                                                                
000444   f004
000446   ef6e     goto	0x8dc                   goto        serial_error_do_unknown         ; 26                                                                                                                                
000448   f004
00044a   ef6e     goto	0x8dc                   goto        serial_error_do_unknown         ; 27                                                                                                                                
00044c   f004
00044e   ef6e     goto	0x8dc                   goto        serial_error_do_unknown         ; 28                                                                                                                                
000450   f004
000452   ef6e     goto	0x8dc                   goto        serial_error_do_unknown         ; 29                                                                                                                                
000454   f004
000456   ef6e     goto	0x8dc                   goto        serial_error_do_unknown         ; 30                                                                                                                                
000458   f004
00045a   ef6e     goto	0x8dc                   goto        serial_error_do_unknown         ; 31                                                                                                                                
00045c   f004
00045e   ef6e     goto	0x8dc                   goto        serial_error_do_unknown         ; 32                                                                                                                                
000460   f004
000462   ef6e     goto	0x8dc                   goto        serial_error_do_unknown         ; 33                                                                                                                                
000464   f004
000466   ef6e     goto	0x8dc                   goto        serial_error_do_unknown         ; 34                                                                                                                                
000468   f004
00046a   ef6e     goto	0x8dc                   goto        serial_error_do_unknown         ; 35                                                                                                                                
00046c   f004
00046e   ef6e     goto	0x8dc                   goto        serial_error_do_unknown         ; 36                                                                                                                                
000470   f004
000472   ef6e     goto	0x8dc                   goto        serial_error_do_unknown         ; 37                                                                                                                                
000474   f004
000476   ef6e     goto	0x8dc                   goto        serial_error_do_unknown         ; 38                                                                                                                                
000478   f004
00047a   ef6e     goto	0x8dc                   goto        serial_error_do_unknown         ; 39                                                                                                                                
00047c   f004
00047e   ef6e     goto	0x8dc                   goto        serial_error_do_unknown         ; 40                                                                                                                                
000480   f004
000482   ef6e     goto	0x8dc                   goto        serial_error_do_unknown         ; 41                                                                                                                                
000484   f004
000486   ef6e     goto	0x8dc                   goto        serial_error_do_unknown         ; 42                                                                                                                                
000488   f004
00048a   ef6e     goto	0x8dc                   goto        serial_error_do_unknown         ; 43                                                                                                                                
00048c   f004
00048e   ef6e     goto	0x8dc                   goto        serial_error_do_unknown         ; 44                                                                                                                                
000490   f004
000492   ef6e     goto	0x8dc                   goto        serial_error_do_unknown         ; 45                                                                                                                                
000494   f004
000496   ef6e     goto	0x8dc                   goto        serial_error_do_unknown         ; 46                                                                                                                                
000498   f004
00049a   ef6e     goto	0x8dc                   goto        serial_error_do_unknown         ; 47                                                                                                                                
00049c   f004
00049e   ef6e     goto	0x8dc                   goto        serial_error_do_unknown         ; 48                                                                                                                                
0004a0   f004
0004a2   ef6e     goto	0x8dc                   goto        serial_error_do_unknown         ; 49                                                                                                                                
0004a4   f004
0004a6   ef6e     goto	0x8dc                   goto        serial_error_do_unknown         ; 50                                                                                                                                
0004a8   f004
0004aa   ef6e     goto	0x8dc                   goto        serial_error_do_unknown         ; 51                                                                                                                                
0004ac   f004
0004ae   ef6e     goto	0x8dc                   goto        serial_error_do_unknown         ; 52                                                                                                                                
0004b0   f004
0004b2   ef6e     goto	0x8dc                   goto        serial_error_do_unknown         ; 53                                                                                                                                
0004b4   f004
0004b6   ef6e     goto	0x8dc                   goto        serial_error_do_unknown         ; 54                                                                                                                                
0004b8   f004
0004ba   ef6e     goto	0x8dc                   goto        serial_error_do_unknown         ; 55                                                                                                                                
0004bc   f004
0004be   ef6e     goto	0x8dc                   goto        serial_error_do_unknown         ; 56                                                                                                                                
0004c0   f004
0004c2   ef6e     goto	0x8dc                   goto        serial_error_do_unknown         ; 57                                                                                                                                
0004c4   f004
0004c6   ef6e     goto	0x8dc                   goto        serial_error_do_unknown         ; 58                                                                                                                                
0004c8   f004
0004ca   ef6e     goto	0x8dc                   goto        serial_error_do_unknown         ; 59                                                                                                                                
0004cc   f004
0004ce   ef6e     goto	0x8dc                   goto        serial_error_do_unknown         ; 60                                                                                                                                
0004d0   f004
0004d2   ef6e     goto	0x8dc                   goto        serial_error_do_unknown         ; 61                                                                                                                                
0004d4   f004
0004d6   ef6e     goto	0x8dc                   goto        serial_error_do_unknown         ; 62                                                                                                                                
0004d8   f004
0004da   ef6e     goto	0x8dc                   goto        serial_error_do_unknown         ; 63                                                                                                                                
0004dc   f004
0004de   ef6e     goto	0x8dc                   goto        serial_error_do_unknown         ; 64                                                                                                                                
0004e0   f004
0004e2   ef6e     goto	0x8dc                   goto        serial_error_do_unknown         ; 65                                                                                                                                
0004e4   f004
0004e6   ef6e     goto	0x8dc                   goto        serial_error_do_unknown         ; 66                                                                                                                                
0004e8   f004
0004ea   ef6e     goto	0x8dc                   goto        serial_error_do_unknown         ; 67                                                                                                                                
0004ec   f004
0004ee   ef6e     goto	0x8dc                   goto        serial_error_do_unknown         ; 68                                                                                                                                
0004f0   f004
0004f2   ef6e     goto	0x8dc                   goto        serial_error_do_unknown         ; 69                                                                                                                                
0004f4   f004
0004f6   ef6e     goto	0x8dc                   goto        serial_error_do_unknown         ; 70                                                                                                                                
0004f8   f004
0004fa   ef6e     goto	0x8dc                   goto        serial_error_do_unknown         ; 71                                                                                                                                
0004fc   f004
0004fe   ef6e     goto	0x8dc                   goto        serial_error_do_unknown         ; 72                                                                                                                                
000500   f004
000502   ef6e     goto	0x8dc                   goto        serial_error_do_unknown         ; 73                                                                                                                                
000504   f004
000506   ef6e     goto	0x8dc                   goto        serial_error_do_unknown         ; 74                                                                                                                                
000508   f004
00050a   ef6e     goto	0x8dc                   goto        serial_error_do_unknown         ; 75                                                                                                                                
00050c   f004
00050e   ef6e     goto	0x8dc                   goto        serial_error_do_unknown         ; 76                                                                                                                                
000510   f004
000512   ef6e     goto	0x8dc                   goto        serial_error_do_unknown         ; 77                                                                                                                                
000514   f004
000516   ef6e     goto	0x8dc                   goto        serial_error_do_unknown         ; 78                                                                                                                                
000518   f004
00051a   ef6e     goto	0x8dc                   goto        serial_error_do_unknown         ; 79                                                                                                                                
00051c   f004
00051e   ef6e     goto	0x8dc                   goto        serial_error_do_unknown         ; 80                                                                                                                                
000520   f004
000522   ef6e     goto	0x8dc                   goto        serial_error_do_unknown         ; 81                                                                                                                                
000524   f004
000526   ef6e     goto	0x8dc                   goto        serial_error_do_unknown         ; 82                                                                                                                                
000528   f004
00052a   ef6e     goto	0x8dc                   goto        serial_error_do_unknown         ; 83                                                                                                                                
00052c   f004
00052e   ef6e     goto	0x8dc                   goto        serial_error_do_unknown         ; 84                                                                                                                                
000530   f004
000532   ef6e     goto	0x8dc                   goto        serial_error_do_unknown         ; 85                                                                                                                                
000534   f004
000536   ef6e     goto	0x8dc                   goto        serial_error_do_unknown         ; 86                                                                                                                                
000538   f004
00053a   ef6e     goto	0x8dc                   goto        serial_error_do_unknown         ; 87                                                                                                                                
00053c   f004
00053e   ef6e     goto	0x8dc                   goto        serial_error_do_unknown         ; 88                                                                                                                                
000540   f004
000542   ef6e     goto	0x8dc                   goto        serial_error_do_unknown         ; 89                                                                                                                                
000544   f004
000546   ef6e     goto	0x8dc                   goto        serial_error_do_unknown         ; 90                                                                                                                                
000548   f004
00054a   ef6e     goto	0x8dc                   goto        serial_error_do_unknown         ; 91                                                                                                                                
00054c   f004
00054e   ef6e     goto	0x8dc                   goto        serial_error_do_unknown         ; 92                                                                                                                                
000550   f004
000552   ef6e     goto	0x8dc                   goto        serial_error_do_unknown         ; 93                                                                                                                                
000554   f004
000556   ef6e     goto	0x8dc                   goto        serial_error_do_unknown         ; 94                                                                                                                                
000558   f004
00055a   ef6e     goto	0x8dc                   goto        serial_error_do_unknown         ; 95                                                                                                                                
00055c   f004
00055e   ef6e     goto	0x8dc                   goto        serial_error_do_unknown         ; 96                                                                                                                                
000560   f004
000562   ef6e     goto	0x8dc                   goto        serial_error_do_unknown         ; 97                                                                                                                                
000564   f004
000566   ef6e     goto	0x8dc                   goto        serial_error_do_unknown         ; 98                                                                                                                                
000568   f004
00056a   ef6e     goto	0x8dc                   goto        serial_error_do_unknown         ; 99                                                                                                                                
00056c   f004
00056e   ef6e     goto	0x8dc                   goto        serial_error_do_unknown         ; 100                                                                                                                               
000570   f004
000572   ef6e     goto	0x8dc                   goto        serial_error_do_unknown         ; 101                                                                                                                               
000574   f004
000576   ef6e     goto	0x8dc                   goto        serial_error_do_unknown         ; 102                                                                                                                               
000578   f004
00057a   ef6e     goto	0x8dc                   goto        serial_error_do_unknown         ; 103                                                                                                                               
00057c   f004
00057e   ef6e     goto	0x8dc                   goto        serial_error_do_unknown         ; 104                                                                                                                               
000580   f004
000582   ef6e     goto	0x8dc                   goto        serial_error_do_unknown         ; 105                                                                                                                               
000584   f004
000586   ef6e     goto	0x8dc                   goto        serial_error_do_unknown         ; 106                                                                                                                               
000588   f004
00058a   ef6e     goto	0x8dc                   goto        serial_error_do_unknown         ; 107                                                                                                                               
00058c   f004
00058e   ef6e     goto	0x8dc                   goto        serial_error_do_unknown         ; 108                                                                                                                               
000590   f004
000592   ef6e     goto	0x8dc                   goto        serial_error_do_unknown         ; 109                                                                                                                               
000594   f004
000596   ef6e     goto	0x8dc                   goto        serial_error_do_unknown         ; 110                                                                                                                               
000598   f004
00059a   ef6e     goto	0x8dc                   goto        serial_error_do_unknown         ; 111                                                                                                                               
00059c   f004
00059e   ef6e     goto	0x8dc                   goto        serial_error_do_unknown         ; 112                                                                                                                               
0005a0   f004
0005a2   ef6e     goto	0x8dc                   goto        serial_error_do_unknown         ; 113                                                                                                                               
0005a4   f004
0005a6   ef6e     goto	0x8dc                   goto        serial_error_do_unknown         ; 114                                                                                                                               
0005a8   f004
0005aa   ef6e     goto	0x8dc                   goto        serial_error_do_unknown         ; 115                                                                                                                               
0005ac   f004
0005ae   ef6e     goto	0x8dc                   goto        serial_error_do_unknown         ; 116                                                                                                                               
0005b0   f004
0005b2   ef6e     goto	0x8dc                   goto        serial_error_do_unknown         ; 117                                                                                                                               
0005b4   f004
0005b6   ef6e     goto	0x8dc                   goto        serial_error_do_unknown         ; 118                                                                                                                               
0005b8   f004
0005ba   ef6e     goto	0x8dc                   goto        serial_error_do_unknown         ; 119                                                                                                                               
0005bc   f004
0005be   ef6e     goto	0x8dc                   goto        serial_error_do_unknown         ; 120                                                                                                                               
0005c0   f004
0005c2   ef6e     goto	0x8dc                   goto        serial_error_do_unknown         ; 121                                                                                                                               
0005c4   f004
0005c6   ef6e     goto	0x8dc                   goto        serial_error_do_unknown         ; 122                                                                                                                               
0005c8   f004
0005ca   ef6e     goto	0x8dc                   goto        serial_error_do_unknown         ; 123                                                                                                                               
0005cc   f004
0005ce   ef6e     goto	0x8dc                   goto        serial_error_do_unknown         ; 124                                                                                                                               
0005d0   f004
0005d2   ef6e     goto	0x8dc                   goto        serial_error_do_unknown         ; 125                                                                                                                               
0005d4   f004
0005d6   ef6e     goto	0x8dc                   goto        serial_error_do_unknown         ; 126                                                                                                                               
0005d8   f004
0005da   ef6e     goto	0x8dc                   goto        serial_error_do_unknown         ; 127                                                                                                                               
0005dc   f004
0005de   ef6e     goto	0x8dc                   goto        serial_error_do_unknown         ; 128                                                                                                                               
0005e0   f004
0005e2   ef6e     goto	0x8dc                   goto        serial_error_do_unknown         ; 129                                                                                                                               
0005e4   f004
0005e6   ef6e     goto	0x8dc                   goto        serial_error_do_unknown         ; 130                                                                                                                               
0005e8   f004
0005ea   ef6e     goto	0x8dc                   goto        serial_error_do_unknown         ; 131                                                                                                                               
0005ec   f004
0005ee   ef6e     goto	0x8dc                   goto        serial_error_do_unknown         ; 132                                                                                                                               
0005f0   f004
0005f2   ef6e     goto	0x8dc                   goto        serial_error_do_unknown         ; 133                                                                                                                               
0005f4   f004
0005f6   ef6e     goto	0x8dc                   goto        serial_error_do_unknown         ; 134                                                                                                                               
0005f8   f004
0005fa   ef6e     goto	0x8dc                   goto        serial_error_do_unknown         ; 135                                                                                                                               
0005fc   f004
0005fe   ef6e     goto	0x8dc                   goto        serial_error_do_unknown         ; 136                                                                                                                               
000600   f004
000602   ef6e     goto	0x8dc                   goto        serial_error_do_unknown         ; 137                                                                                                                               
000604   f004
000606   ef6e     goto	0x8dc                   goto        serial_error_do_unknown         ; 138                                                                                                                               
000608   f004
00060a   ef6e     goto	0x8dc                   goto        serial_error_do_unknown         ; 139                                                                                                                               
00060c   f004
00060e   ef6e     goto	0x8dc                   goto        serial_error_do_unknown         ; 140                                                                                                                               
000610   f004
000612   ef6e     goto	0x8dc                   goto        serial_error_do_unknown         ; 141                                                                                                                               
000614   f004
000616   ef6e     goto	0x8dc                   goto        serial_error_do_unknown         ; 142                                                                                                                               
000618   f004
00061a   ef6e     goto	0x8dc                   goto        serial_error_do_unknown         ; 143                                                                                                                               
00061c   f004
00061e   ef6e     goto	0x8dc                   goto        serial_error_do_unknown         ; 144                                                                                                                               
000620   f004
000622   ef6e     goto	0x8dc                   goto        serial_error_do_unknown         ; 145                                                                                                                               
000624   f004
000626   ef6e     goto	0x8dc                   goto        serial_error_do_unknown         ; 146                                                                                                                               
000628   f004
00062a   ef6e     goto	0x8dc                   goto        serial_error_do_unknown         ; 147                                                                                                                               
00062c   f004
00062e   ef6e     goto	0x8dc                   goto        serial_error_do_unknown         ; 148                                                                                                                               
000630   f004
000632   ef6e     goto	0x8dc                   goto        serial_error_do_unknown         ; 149                                                                                                                               
000634   f004
000636   ef6e     goto	0x8dc                   goto        serial_error_do_unknown         ; 150                                                                                                                               
000638   f004
00063a   ef6e     goto	0x8dc                   goto        serial_error_do_unknown         ; 151                                                                                                                               
00063c   f004
00063e   ef6e     goto	0x8dc                   goto        serial_error_do_unknown         ; 152                                                                                                                               
000640   f004
000642   ef6e     goto	0x8dc                   goto        serial_error_do_unknown         ; 153                                                                                                                               
000644   f004
000646   ef6e     goto	0x8dc                   goto        serial_error_do_unknown         ; 154                                                                                                                               
000648   f004
00064a   ef6e     goto	0x8dc                   goto        serial_error_do_unknown         ; 155                                                                                                                               
00064c   f004
00064e   ef6e     goto	0x8dc                   goto        serial_error_do_unknown         ; 156                                                                                                                               
000650   f004
000652   ef6e     goto	0x8dc                   goto        serial_error_do_unknown         ; 157                                                                                                                               
000654   f004
000656   ef6e     goto	0x8dc                   goto        serial_error_do_unknown         ; 158                                                                                                                               
000658   f004
00065a   ef6e     goto	0x8dc                   goto        serial_error_do_unknown         ; 159                                                                                                                               
00065c   f004
00065e   ef6e     goto	0x8dc                   goto        serial_error_do_unknown         ; 160                                                                                                                               
000660   f004
000662   ef6e     goto	0x8dc                   goto        serial_error_do_unknown         ; 161                                                                                                                               
000664   f004
000666   ef6e     goto	0x8dc                   goto        serial_error_do_unknown         ; 162                                                                                                                               
000668   f004
00066a   ef6e     goto	0x8dc                   goto        serial_error_do_unknown         ; 163                                                                                                                               
00066c   f004
00066e   ef6e     goto	0x8dc                   goto        serial_error_do_unknown         ; 164                                                                                                                               
000670   f004
000672   ef6e     goto	0x8dc                   goto        serial_error_do_unknown         ; 165                                                                                                                               
000674   f004
000676   ef6e     goto	0x8dc                   goto        serial_error_do_unknown         ; 166                                                                                                                               
000678   f004
00067a   ef6e     goto	0x8dc                   goto        serial_error_do_unknown         ; 167                                                                                                                               
00067c   f004
00067e   ef6e     goto	0x8dc                   goto        serial_error_do_unknown         ; 168                                                                                                                               
000680   f004
000682   ef6e     goto	0x8dc                   goto        serial_error_do_unknown         ; 169                                                                                                                               
000684   f004
000686   ef6e     goto	0x8dc                   goto        serial_error_do_unknown         ; 170                                                                                                                               
000688   f004
00068a   ef6e     goto	0x8dc                   goto        serial_error_do_unknown         ; 171                                                                                                                               
00068c   f004
00068e   ef6e     goto	0x8dc                   goto        serial_error_do_unknown         ; 172                                                                                                                               
000690   f004
000692   ef6e     goto	0x8dc                   goto        serial_error_do_unknown         ; 173                                                                                                                               
000694   f004
000696   ef6e     goto	0x8dc                   goto        serial_error_do_unknown         ; 174                                                                                                                               
000698   f004
00069a   ef6e     goto	0x8dc                   goto        serial_error_do_unknown         ; 175                                                                                                                               
00069c   f004
00069e   ef6e     goto	0x8dc                   goto        serial_error_do_unknown         ; 176                                                                                                                               
0006a0   f004
0006a2   ef6e     goto	0x8dc                   goto        serial_error_do_unknown         ; 177                                                                                                                               
0006a4   f004
0006a6   ef6e     goto	0x8dc                   goto        serial_error_do_unknown         ; 178                                                                                                                               
0006a8   f004
0006aa   ef6e     goto	0x8dc                   goto        serial_error_do_unknown         ; 179                                                                                                                               
0006ac   f004
0006ae   ef6e     goto	0x8dc                   goto        serial_error_do_unknown         ; 180                                                                                                                               
0006b0   f004
0006b2   ef6e     goto	0x8dc                   goto        serial_error_do_unknown         ; 181                                                                                                                               
0006b4   f004
0006b6   ef6e     goto	0x8dc                   goto        serial_error_do_unknown         ; 182                                                                                                                               
0006b8   f004
0006ba   ef6e     goto	0x8dc                   goto        serial_error_do_unknown         ; 183                                                                                                                               
0006bc   f004
0006be   ef6e     goto	0x8dc                   goto        serial_error_do_unknown         ; 184                                                                                                                               
0006c0   f004
0006c2   ef6e     goto	0x8dc                   goto        serial_error_do_unknown         ; 185                                                                                                                               
0006c4   f004
0006c6   ef6e     goto	0x8dc                   goto        serial_error_do_unknown         ; 186                                                                                                                               
0006c8   f004
0006ca   ef6e     goto	0x8dc                   goto        serial_error_do_unknown         ; 187                                                                                                                               
0006cc   f004
0006ce   ef6e     goto	0x8dc                   goto        serial_error_do_unknown         ; 188                                                                                                                               
0006d0   f004
0006d2   ef6e     goto	0x8dc                   goto        serial_error_do_unknown         ; 189                                                                                                                               
0006d4   f004
0006d6   ef6e     goto	0x8dc                   goto        serial_error_do_unknown         ; 190                                                                                                                               
0006d8   f004
0006da   ef6e     goto	0x8dc                   goto        serial_error_do_unknown         ; 191                                                                                                                               
0006dc   f004
0006de   ef6e     goto	0x8dc                   goto        serial_error_do_unknown         ; 192                                                                                                                               
0006e0   f004
0006e2   ef6e     goto	0x8dc                   goto        serial_error_do_unknown         ; 193                                                                                                                               
0006e4   f004
0006e6   ef6e     goto	0x8dc                   goto        serial_error_do_unknown         ; 194                                                                                                                               
0006e8   f004
0006ea   ef6e     goto	0x8dc                   goto        serial_error_do_unknown         ; 195                                                                                                                               
0006ec   f004
0006ee   ef6e     goto	0x8dc                   goto        serial_error_do_unknown         ; 196
0006f0   f004
0006f2   ef6e     goto	0x8dc                   goto        serial_error_do_unknown         ; 197
0006f4   f004
0006f6   ef6e     goto	0x8dc                   goto        serial_error_do_unknown         ; 198
0006f8   f004
0006fa   ef6e     goto	0x8dc                   goto        serial_error_do_unknown         ; 199
0006fc   f004
0006fe   ef6e     goto	0x8dc                   goto        serial_error_do_unknown         ; 200
000700   f004
000702   ef6e     goto	0x8dc                   goto        serial_error_do_unknown         ; 201
000704   f004
000706   ef6e     goto	0x8dc                   goto        serial_error_do_unknown         ; 202
000708   f004
00070a   ef6e     goto	0x8dc                   goto        serial_error_do_unknown         ; 203
00070c   f004
00070e   ef6e     goto	0x8dc                   goto        serial_error_do_unknown         ; 204
000710   f004
000712   ef6e     goto	0x8dc                   goto        serial_error_do_unknown         ; 205
000714   f004
000716   ef6e     goto	0x8dc                   goto        serial_error_do_unknown         ; 206
000718   f004
00071a   ef6e     goto	0x8dc                   goto        serial_error_do_unknown         ; 207
00071c   f004
00071e   ef6e     goto	0x8dc                   goto        serial_error_do_unknown         ; 208
000720   f004
000722   ef6e     goto	0x8dc                   goto        serial_error_do_unknown         ; 209
000724   f004
000726   ef6e     goto	0x8dc                   goto        serial_error_do_unknown         ; 210
000728   f004
00072a   ef6e     goto	0x8dc                   goto        serial_error_do_unknown         ; 211
00072c   f004
00072e   ef6e     goto	0x8dc                   goto        serial_error_do_unknown         ; 212
000730   f004
000732   ef6e     goto	0x8dc                   goto        serial_error_do_unknown         ; 213
000734   f004
000736   ef6e     goto	0x8dc                   goto        serial_error_do_unknown         ; 214
000738   f004
00073a   ef6e     goto	0x8dc                   goto        serial_error_do_unknown         ; 215
00073c   f004
00073e   ef6e     goto	0x8dc                   goto        serial_error_do_unknown         ; 216
000740   f004
000742   ef6e     goto	0x8dc                   goto        serial_error_do_unknown         ; 217
000744   f004
000746   ef6e     goto	0x8dc                   goto        serial_error_do_unknown         ; 218
000748   f004
00074a   ef6e     goto	0x8dc                   goto        serial_error_do_unknown         ; 219
00074c   f004
00074e   ef6e     goto	0x8dc                   goto        serial_error_do_unknown         ; 220
000750   f004
000752   ef6e     goto	0x8dc                   goto        serial_error_do_unknown         ; 221
000754   f004
000756   ef6e     goto	0x8dc                   goto        serial_error_do_unknown         ; 222
000758   f004
00075a   ef6e     goto	0x8dc                   goto        serial_error_do_unknown         ; 223
00075c   f004
00075e   ef6e     goto	0x8dc                   goto        serial_error_do_unknown         ; 224
000760   f004
000762   ef6e     goto	0x8dc                   goto        serial_error_do_unknown         ; 225
000764   f004
000766   ef6e     goto	0x8dc                   goto        serial_error_do_unknown         ; 226
000768   f004
00076a   ef6e     goto	0x8dc                   goto        serial_error_do_unknown         ; 227
00076c   f004
00076e   ef6e     goto	0x8dc                   goto        serial_error_do_unknown         ; 228
000770   f004
000772   ef6e     goto	0x8dc                   goto        serial_error_do_unknown         ; 229
000774   f004
000776   ef6e     goto	0x8dc                   goto        serial_error_do_unknown         ; 230
000778   f004
00077a   ef6e     goto	0x8dc                   goto        serial_error_do_unknown         ; 231
00077c   f004
00077e   ef6e     goto	0x8dc                   goto        serial_error_do_unknown         ; 232
000780   f004
000782   ef6e     goto	0x8dc                   goto        serial_error_do_unknown         ; 233
000784   f004
000786   ef6e     goto	0x8dc                   goto        serial_error_do_unknown         ; 234
000788   f004
00078a   ef6e     goto	0x8dc                   goto        serial_error_do_unknown         ; 235
00078c   f004
00078e   ef6e     goto	0x8dc                   goto        serial_error_do_unknown         ; 236
000790   f004
000792   ef6e     goto	0x8dc                   goto        serial_error_do_unknown         ; 237
000794   f004
000796   ef6e     goto	0x8dc                   goto        serial_error_do_unknown         ; 238
000798   f004
00079a   ef6e     goto	0x8dc                   goto        serial_error_do_unknown         ; 239
00079c   f004
00079e   ef6e     goto	0x8dc                   goto        serial_error_do_unknown         ; 240
0007a0   f004
0007a2   ef6e     goto	0x8dc                   goto        serial_error_do_unknown         ; 241
0007a4   f004
0007a6   ef6e     goto	0x8dc                   goto        serial_error_do_unknown         ; 242
0007a8   f004
0007aa   ef6e     goto	0x8dc                   goto        serial_error_do_unknown         ; 243
0007ac   f004
0007ae   ef6e     goto	0x8dc                   goto        serial_error_do_unknown         ; 244
0007b0   f004
0007b2   ef6e     goto	0x8dc                   goto        serial_error_do_unknown         ; 245
0007b4   f004
0007b6   ef6e     goto	0x8dc                   goto        serial_error_do_unknown         ; 246
0007b8   f004
0007ba   ef6e     goto	0x8dc                   goto        serial_error_do_unknown         ; 247
0007bc   f004
0007be   ef6e     goto	0x8dc                   goto        serial_error_do_unknown         ; 248
0007c0   f004
0007c2   ef6e     goto	0x8dc                   goto        serial_error_do_unknown         ; 249
0007c4   f004
0007c6   ef6e     goto	0x8dc                   goto        serial_error_do_unknown         ; 250
0007c8   f004
0007ca   ef6e     goto	0x8dc                   goto        serial_error_do_unknown         ; 251
0007cc   f004
0007ce   ef6e     goto	0x8dc                   goto        serial_error_do_unknown         ; 252
0007d0   f004
0007d2   ef6e     goto	0x8dc                   goto        serial_error_do_unknown         ; 253
0007d4   f004
0007d6   ef6e     goto	0x8dc                   goto        serial_error_do_unknown         ; 254
0007d8   f004
0007da   ef6e     goto	0x8dc                   goto        serial_error_do_unknown         ; 255
0007dc   f004
                                           
                                           serial_do_get_reset
                                               ; run the get_reset subroutine and return success
0007de   eccc     call	0x998, 0                call        get_reset
0007e0   f004
0007e2   ec06     call	0x80c, 0                call        serial_do_ack
0007e4   f004
0007e6   efa5     goto	0x94a                   goto        serial_handler_exit
0007e8   f004
                                           
                                           serial_do_get_dma
0007ea   ecc4     call	0x988, 0                call        get_dma
0007ec   f004
0007ee   ec06     call	0x80c, 0                call        serial_do_ack
0007f0   f004
0007f2   efa5     goto	0x94a                   goto        serial_handler_exit
0007f4   f004
                                           
                                           serial_do_get_slave
0007f6   ecda     call	0x9b4, 0                call        get_slave
0007f8   f004
0007fa   ec06     call	0x80c, 0                call        serial_do_ack
0007fc   f004
0007fe   efa5     goto	0x94a                   goto        serial_handler_exit
000800   f004
                                           
                                           serial_do_reset
                                               ; special case, send ack then perform a CPU reset
000802   ec06     call	0x80c, 0                call        serial_do_ack
000804   f004
                                           
                                           serial_do_reset_loop
                                               ; need to wait here until the UART has finished sending the two bytes
                                               ; that are in the shift register and transmit buffer
000806   a2ac     btfss	0xac, 0x1, 0           btfss       TXSTA,TRMT
000808   d7fe     bra	0x806                    bra         serial_do_reset_loop
                                               ; TSR is now empty, can safely do reset.
                                           
00080a   00ff     reset                        reset
                                           
                                           serial_do_ack
00080c   6ae1     clrf	0xe1, 0                 clrf        FSR1L
00080e   0e09     movlw	0x9                    movlw       0x09
000810   6ee6     movwf	0xe6, 0                movwf       POSTINC1
000812   6f85     movwf	0x85, 0x1              movwf       TX_CHECKSUM
                                           
000814   0e01     movlw	0x1                    movlw       0x01
000816   6ee6     movwf	0xe6, 0                movwf       POSTINC1
000818   1b85     xorwf	0x85, 0x1, 0x1         xorwf       TX_CHECKSUM,f
                                           
00081a   0e02     movlw	0x2                    movlw       0x02
00081c   6ee9     movwf	0xe9, 0                movwf       FSR0L
00081e   50ef     movf	0xef, 0, 0              movf        INDF0,w
000820   6ee6     movwf	0xe6, 0                movwf       POSTINC1
000822   1b85     xorwf	0x85, 0x1, 0x1         xorwf       TX_CHECKSUM,f
                                           
000824   5185     movf	0x85, 0, 0x1            movf        TX_CHECKSUM,w
000826   6ee6     movwf	0xe6, 0                movwf       POSTINC1
                                           
000828   ec3a     call	0x74, 0                 call        serial_tx_send_packet
00082a   f000
                                           
00082c   0012     return	0                     return
                                           
                                           ; -- serial error functions ---------------------------------------------------
                                           
                                           serial_error_checksum
                                               ; report a message received with a bad checksum
                                               ; special first character because we don't know if the command was corrupt
                                               ; or data following it so start with a "0"
                                               ; set the send pointer to the start of the buffer
00082e   6ae1     clrf	0xe1, 0                 clrf        FSR1L
000830   0e80     movlw	0x80                   movlw       0x80
000832   6ee6     movwf	0xe6, 0                movwf       POSTINC1
000834   6f85     movwf	0x85, 0x1              movwf       TX_CHECKSUM
                                               ; next is length byte.  checksum fail message is always 3 bytes
000836   0e03     movlw	0x3                    movlw       0x03
000838   6ee6     movwf	0xe6, 0                movwf       POSTINC1
00083a   1b85     xorwf	0x85, 0x1, 0x1         xorwf       TX_CHECKSUM,f
                                               ; now is the error code.  checksum fail = 0x0001
00083c   0e00     movlw	0                      movlw       0x00
00083e   6ee6     movwf	0xe6, 0                movwf       POSTINC1
000840   1b85     xorwf	0x85, 0x1, 0x1         xorwf       TX_CHECKSUM,f
000842   0e01     movlw	0x1                    movlw       0x01
000844   6ee6     movwf	0xe6, 0                movwf       POSTINC1
000846   1b85     xorwf	0x85, 0x1, 0x1         xorwf       TX_CHECKSUM,f
                                               ; now send the calculated checksum for debugging
000848   5183     movf	0x83, 0, 0x1            movf        RX_CHECKSUM,w
00084a   6ee6     movwf	0xe6, 0                movwf       POSTINC1
00084c   1b85     xorwf	0x85, 0x1, 0x1         xorwf       TX_CHECKSUM,f
                                               ; now add the checksum
00084e   5185     movf	0x85, 0, 0x1            movf        TX_CHECKSUM,w
000850   6ee6     movwf	0xe6, 0                movwf       POSTINC1
                                               
                                               ; packet assembled, send the packet
000852   ec3a     call	0x74, 0                 call        serial_tx_send_packet
000854   f000
                                           
000856   efa5     goto	0x94a                   goto        serial_handler_exit
000858   f004
                                           
                                           serial_error_bad_command
                                               ; report a bad command i.e. byte outside [A-Z]
                                               ; set the send pointer to the start of the buffer
00085a   6ae1     clrf	0xe1, 0                 clrf        FSR1L
00085c   0e81     movlw	0x81                   movlw       0x81     ; bad command so can't do the normal upper/lower conversion
00085e   6ee6     movwf	0xe6, 0                movwf       POSTINC1
000860   6f85     movwf	0x85, 0x1              movwf       TX_CHECKSUM
                                               ; next is length byte.  always 3 bytes for bad command
000862   0e03     movlw	0x3                    movlw       0x03
000864   6ee6     movwf	0xe6, 0                movwf       POSTINC1
000866   1b85     xorwf	0x85, 0x1, 0x1         xorwf       TX_CHECKSUM,f
                                               ; now is the error code.  bad command = 0x0002
000868   0e00     movlw	0                      movlw       0x00
00086a   6ee6     movwf	0xe6, 0                movwf       POSTINC1
00086c   1b85     xorwf	0x85, 0x1, 0x1         xorwf       TX_CHECKSUM,f
00086e   0e02     movlw	0x2                    movlw       0x02
000870   6ee6     movwf	0xe6, 0                movwf       POSTINC1
000872   1b85     xorwf	0x85, 0x1, 0x1         xorwf       TX_CHECKSUM,f
                                               ; now send the bad command for debug
000874   5181     movf	0x81, 0, 0x1            movf        RX_COMMAND,w
000876   6ee6     movwf	0xe6, 0                movwf       POSTINC1
000878   1b85     xorwf	0x85, 0x1, 0x1         xorwf       TX_CHECKSUM,f
                                               ; finally add the checksum
00087a   5185     movf	0x85, 0, 0x1            movf        TX_CHECKSUM,w
00087c   6ee6     movwf	0xe6, 0                movwf       POSTINC1
                                           
                                               ; packet assembled, send the packet
00087e   ec3a     call	0x74, 0                 call        serial_tx_send_packet
000880   f000
                                           
000882   efa5     goto	0x94a                   goto        serial_handler_exit
000884   f004
                                           
                                           serial_error_unused_command
                                               ; valid command letter but not used
                                               ; set the send pointer to the start of the buffer
000886   6ae1     clrf	0xe1, 0                 clrf        FSR1L
                                               ; command code is same with bit 6 set
000888   5181     movf	0x81, 0, 0x1            movf        RX_COMMAND,w
00088a   8ce8     bsf	0xe8, 0x6, 0             bsf         WREG,6          ; set bit 6, the error flag
00088c   6ee6     movwf	0xe6, 0                movwf       POSTINC1
00088e   6f85     movwf	0x85, 0x1              movwf       TX_CHECKSUM
                                               ; now the length only the error code now
000890   0e02     movlw	0x2                    movlw       0x02
000892   6ee6     movwf	0xe6, 0                movwf       POSTINC1
000894   1b85     xorwf	0x85, 0x1, 0x1         xorwf       TX_CHECKSUM,f
                                               ; now the error code 0x0003 for unused command
000896   0e00     movlw	0                      movlw       0x00
000898   6ee6     movwf	0xe6, 0                movwf       POSTINC1
00089a   1b85     xorwf	0x85, 0x1, 0x1         xorwf       TX_CHECKSUM,f
00089c   0e03     movlw	0x3                    movlw       0x03
00089e   6ee6     movwf	0xe6, 0                movwf       POSTINC1
0008a0   1b85     xorwf	0x85, 0x1, 0x1         xorwf       TX_CHECKSUM,f
                                               ; now the checksum
0008a2   5185     movf	0x85, 0, 0x1            movf        TX_CHECKSUM,w
0008a4   6ee6     movwf	0xe6, 0                movwf       POSTINC1
                                           
0008a6   ec3a     call	0x74, 0                 call        serial_tx_send_packet
0008a8   f000
                                           
0008aa   efa5     goto	0x94a                   goto        serial_handler_exit
0008ac   f004
                                           
                                           serial_error_wrong_parameters
                                               ; valid command but got the wrong number of parameters
0008ae   6ae1     clrf	0xe1, 0                 clrf        FSR1L
                                               ; command code with bit 6 set
0008b0   5181     movf	0x81, 0, 0x1            movf        RX_COMMAND,w
0008b2   8ce8     bsf	0xe8, 0x6, 0             bsf         WREG,6
0008b4   6ee6     movwf	0xe6, 0                movwf       POSTINC1
0008b6   6f85     movwf	0x85, 0x1              movwf       TX_CHECKSUM
                                               ; now the length, error code plus the expected number of params
0008b8   0e03     movlw	0x3                    movlw       0x03
0008ba   6ee6     movwf	0xe6, 0                movwf       POSTINC1
0008bc   1b85     xorwf	0x85, 0x1, 0x1         xorwf       TX_CHECKSUM,f
                                               ; now the error code 0x0004
0008be   0e00     movlw	0                      movlw       0x00
0008c0   6ee6     movwf	0xe6, 0                movwf       POSTINC1
0008c2   1b85     xorwf	0x85, 0x1, 0x1         xorwf       TX_CHECKSUM,f
0008c4   0e04     movlw	0x4                    movlw       0x04
0008c6   6ee6     movwf	0xe6, 0                movwf       POSTINC1
0008c8   1b85     xorwf	0x85, 0x1, 0x1         xorwf       TX_CHECKSUM,f
                                               ; now the correct number of argument bytes
0008ca   5188     movf	0x88, 0, 0x1            movf        MAIN_TEMP,w
0008cc   6ee6     movwf	0xe6, 0                movwf       POSTINC1
0008ce   1b85     xorwf	0x85, 0x1, 0x1         xorwf       TX_CHECKSUM,f
                                               ; now the checksum
0008d0   5185     movf	0x85, 0, 0x1            movf        TX_CHECKSUM,w
0008d2   6ee6     movwf	0xe6, 0                movwf       POSTINC1
                                           
0008d4   ec3a     call	0x74, 0                 call        serial_tx_send_packet
0008d6   f000
                                           
0008d8   efa5     goto	0x94a                   goto        serial_handler_exit
0008da   f004
                                           
                                           serial_error_do_unknown
0008dc   6ae1     clrf	0xe1, 0                 clrf        FSR1L
0008de   0e49     movlw	0x49                   movlw       0x49
0008e0   6ee6     movwf	0xe6, 0                movwf       POSTINC1
0008e2   6f85     movwf	0x85, 0x1              movwf       TX_CHECKSUM
                                           
0008e4   0e03     movlw	0x3                    movlw       0x03
0008e6   6ee6     movwf	0xe6, 0                movwf       POSTINC1
0008e8   1b85     xorwf	0x85, 0x1, 0x1         xorwf       TX_CHECKSUM,f
                                           
0008ea   0e00     movlw	0                      movlw       0x00
0008ec   6ee6     movwf	0xe6, 0                movwf       POSTINC1
0008ee   1b85     xorwf	0x85, 0x1, 0x1         xorwf       TX_CHECKSUM,f
                                           
0008f0   0e09     movlw	0x9                    movlw       0x09
0008f2   6ee6     movwf	0xe6, 0                movwf       POSTINC1
0008f4   1b85     xorwf	0x85, 0x1, 0x1         xorwf       TX_CHECKSUM,f
                                           
0008f6   0e02     movlw	0x2                    movlw       0x02
0008f8   6ee9     movwf	0xe9, 0                movwf       FSR0L
0008fa   50ef     movf	0xef, 0, 0              movf        INDF0,w
0008fc   6ee6     movwf	0xe6, 0                movwf       POSTINC1
0008fe   1b85     xorwf	0x85, 0x1, 0x1         xorwf       TX_CHECKSUM,f
                                           
000900   5185     movf	0x85, 0, 0x1            movf        TX_CHECKSUM,w
000902   6ee6     movwf	0xe6, 0                movwf       POSTINC1
                                           
000904   ec3a     call	0x74, 0                 call        serial_tx_send_packet
000906   f000
                                           
000908   efa5     goto	0x94a                   goto        serial_handler_exit
00090a   f004
                                           
                                           serial_error_packet_length
00090c   0e05     movlw	0x5                    movlw       0x05
00090e   6f88     movwf	0x88, 0x1              movwf       MAIN_TEMP
000910   ef92     goto	0x924                   goto        serial_error_generic
000912   f004
                                           
                                           serial_error_bios_address_space
000914   0e06     movlw	0x6                    movlw       0x06
000916   6f88     movwf	0x88, 0x1              movwf       MAIN_TEMP
000918   ef92     goto	0x924                   goto        serial_error_generic
00091a   f004
                                           
                                           serial_error_bios_address_offset
00091c   0e07     movlw	0x7                    movlw       0x07
00091e   6f88     movwf	0x88, 0x1              movwf       MAIN_TEMP
000920   ef92     goto	0x924                   goto        serial_error_generic
000922   f004
                                           
                                           serial_error_generic
000924   6ae1     clrf	0xe1, 0                 clrf        FSR1L
000926   5181     movf	0x81, 0, 0x1            movf        RX_COMMAND,w
000928   8ce8     bsf	0xe8, 0x6, 0             bsf         WREG,6
00092a   6ee6     movwf	0xe6, 0                movwf       POSTINC1
00092c   6f85     movwf	0x85, 0x1              movwf       TX_CHECKSUM
                                           
00092e   0e02     movlw	0x2                    movlw       0x02
000930   6ee6     movwf	0xe6, 0                movwf       POSTINC1
000932   1b85     xorwf	0x85, 0x1, 0x1         xorwf       TX_CHECKSUM,f
                                           
000934   0e00     movlw	0                      movlw       0x00
000936   6ee6     movwf	0xe6, 0                movwf       POSTINC1
000938   1b85     xorwf	0x85, 0x1, 0x1         xorwf       TX_CHECKSUM,f
                                           
00093a   5188     movf	0x88, 0, 0x1            movf        MAIN_TEMP,w
00093c   6ee6     movwf	0xe6, 0                movwf       POSTINC1
00093e   1985     xorwf	0x85, 0, 0x1           xorwf       TX_CHECKSUM,w
                                           
000940   6ee6     movwf	0xe6, 0                movwf       POSTINC1
                                           
000942   ec3a     call	0x74, 0                 call        serial_tx_send_packet
000944   f000
                                           
000946   efa5     goto	0x94a                   goto        serial_handler_exit
000948   f004
                                           
                                           serial_handler_exit
                                               ; standard exit for all serial response functions
00094a   6ae9     clrf	0xe9, 0                 clrf        FSR0L           ; reset RX pointer
00094c   6b84     clrf	0x84, 0x1               clrf        RX_FLAGS        ; get rid of any flags from this message
00094e   6b80     clrf	0x80, 0x1               clrf        RX_MODE         ; go back to waiting
000950   0012     return	0                     return
                                           
                                           ; == Export Direct Access to ==================================================
                                           
                                               GLOBAL      serial_init
                                               GLOBAL      serial_rx_int
                                               GLOBAL      serial_command_dispatch
                                           
                                           end
                                           ;==============================================================================
                                           ;    main.asm
                                           ;==============================================================================
                                           
                                           ;------------------------------------------------------------------------------
                                           ;
                                           ; Simple Debug Kernel for CPU supervisor on Z80 Project Mark 2
                                           ; File Version 2 - 17 Oct 09
                                           ; hairymnstr@gmail.com
                                           ;
                                           ; Copyright (C) 2009  Nathan Dumont
                                           ;
                                           ; This program is free software: you can redistribute it and/or modify
                                           ; it under the terms of the GNU General Public License as published by
                                           ; the Free Software Foundation, either version 3 of the License, or
                                           ; (at your option) any later version.
                                           ;
                                           ; This program is distributed in the hope that it will be useful,
                                           ; but WITHOUT ANY WARRANTY; without even the implied warranty of
                                           ; MERCHANTABILITY or FITNESS FOR A PARTICULAR PURPOSE.  See the
                                           ; GNU General Public License for more details.
                                           ;
                                           ; You should have received a copy of the GNU General Public License
                                           ; along with this program.  If not, see <http://www.gnu.org/licenses/>.
                                           ;
                                           ;
                                           ;------------------------------------------------------------------------------
                                           
                                           list p=18f4520
                                           #include <p18f4520.inc>
                                                   LIST
                                           
                                           ;==========================================================================
                                           ;  MPASM PIC18F4520 processor include
                                           ; 
                                           ;  (c) Copyright 1999-2007 Microchip Technology, All rights reserved
                                           ;==========================================================================
                                           
                                                   NOLIST
                                           #include "portpins.inc"
                                           ;== PORT Definitions ==========================================================
                                           
                                           ;-- PORT A --------------------------------------------------------------------
                                           
                                           P_RESET         EQU     0
                                           P_BUSRQ         EQU     1
                                           P_MREQ          EQU     2
                                           P_IORQ          EQU     3
                                           P_WAIT          EQU     4
                                           P_HI_LAT        EQU     5
                                           
                                           ;-- PORT C --------------------------------------------------------------------
                                           
                                           P_BUSACK        EQU     0
                                           P_SD_CS         EQU     1
                                           P_CLK           EQU     2
                                           P_SD_CK         EQU     3
                                           P_SD_DI         EQU     4
                                           P_SD_DO         EQU     5
                                           P_TX            EQU     6
                                           P_RX            EQU     7
                                           
                                           ;-- PORT E --------------------------------------------------------------------
                                           
                                           P_RD            EQU     0
                                           P_WR            EQU     1
                                           P_CS            EQU     2
                                           
                                           errorlevel -302
                                           errorlevel -205
                                           
                                           CONFIG OSC = HSPLL
                                           CONFIG FCMEN = ON, IESO = OFF, PWRT = ON, BOREN = OFF, BORV = 0
                                           CONFIG WDT = OFF, WDTPS = 1, MCLRE = ON, LPT1OSC = OFF
                                           CONFIG PBADEN = OFF, CCP2MX = PORTC, STVREN = ON, LVP = OFF
                                           CONFIG XINST = OFF, DEBUG = OFF, CP0 = OFF, CP1 = OFF, CP2 = OFF, CP3 = OFF
                                           CONFIG CPB = OFF, CPD = OFF, WRT0 = OFF, WRT1 = OFF, WRT2 = OFF, WRT3 = OFF
                                           CONFIG WRTB = OFF, WRTC = OFF, WRTD = OFF, EBTR0 = OFF, EBTR1 = OFF
                                           CONFIG EBTR2 = OFF, EBTR3 = OFF, EBTRB = OFF
                                           
                                           ; -- Externals From serial.asm ------------------------------------------------
                                           
                                               EXTERN      serial_rx_int
                                               EXTERN      serial_init
                                               EXTERN      serial_command_dispatch
                                           
                                           ; -- Externals From host_bus.asm ----------------------------------------------
                                           
                                               EXTERN      get_reset
                                               EXTERN      get_dma
                                               EXTERN      get_slave
                                               EXTERN      ensure_master
                                               EXTERN      revert_master
                                           
                                           ; -- Externals From boot.asm ---------------------------------------------------
                                           
                                               EXTERN      boot_init
                                               EXTERN      boot_load
                                           
                                           ;== Variables =================================================================
                                           
                                           UDATA
                                           
                                           MAIN_TEMP       RES     1
                                           
                                           org 0x00
000000   ef08     goto	0x10                    goto init
000002   f000
                                           
                                           org 0x08
                                           interrupt
000008   ba9e     btfsc	0x9e, 0x5, 0           btfsc       PIR1,RCIF       ;test serial receive interrupt flag
00000a   ec55     call	0xaa, 0                 call        serial_rx_int   ;set, so handle received data
00000c   f000
00000e   0011     retfie	0x1                   retfie      FAST            ;all interrupts serviced, return reinstating context
                                           
                                           init
000010   0e0f     movlw	0xf                    movlw       0x0F
000012   6ec1     movwf	0xc1, 0                movwf       ADCON1          ; no ADC functionality thanks.
000014   eccc     call	0x998, 0                call        get_reset       ; put the Z80 into reset before we start doing stuff
000016   f004
000018   ec1b     call	0x36, 0                 call        serial_init     ; initialise the serial port
00001a   f000
00001c   ec32     call	0xa64, 0                call        boot_init       ; set up CPU clock etc.
00001e   f005
                                           
000020   9a94     bcf	0x94, 0x5, 0             bcf         TRISC,5         ; the extra LED on SD card port needs output
000022   9a8b     bcf	0x8b, 0x5, 0             bcf         LATC,5
                                           
000024   ec3c     call	0xa78, 0                call        boot_load
000026   f005
                                               
000028   8a8b     bsf	0x8b, 0x5, 0             bsf         LATC,5
                                           
                                               ; let the Z80 go!!
00002a   ecda     call	0x9b4, 0                call        get_slave
00002c   f004
                                           
                                           main
                                               ; call serial_command_dispatch, checks for a whole command received and
                                               ; calls an appropriate handler function for the command
00002e   ec90     call	0x120, 0                call        serial_command_dispatch
000030   f000
000032   ef17     goto	0x2e                    goto        main
000034   f000
                                           
                                           ; == Export these =============================================================
                                           
                                               GLOBAL      MAIN_TEMP
                                           end
                                           ;==============================================================================
                                           ;    host_bus.asm
                                           ;==============================================================================
                                           list p=18f4520
                                           #include <p18f4520.inc>
                                                   LIST
                                           
                                           ;==========================================================================
                                           ;  MPASM PIC18F4520 processor include
                                           ; 
                                           ;  (c) Copyright 1999-2007 Microchip Technology, All rights reserved
                                           ;==========================================================================
                                           
                                                   NOLIST
                                           #include "portpins.inc"
                                           ;== PORT Definitions ==========================================================
                                           
                                           ;-- PORT A --------------------------------------------------------------------
                                           
                                           P_RESET         EQU     0
                                           P_BUSRQ         EQU     1
                                           P_MREQ          EQU     2
                                           P_IORQ          EQU     3
                                           P_WAIT          EQU     4
                                           P_HI_LAT        EQU     5
                                           
                                           ;-- PORT C --------------------------------------------------------------------
                                           
                                           P_BUSACK        EQU     0
                                           P_SD_CS         EQU     1
                                           P_CLK           EQU     2
                                           P_SD_CK         EQU     3
                                           P_SD_DI         EQU     4
                                           P_SD_DO         EQU     5
                                           P_TX            EQU     6
                                           P_RX            EQU     7
                                           
                                           ;-- PORT E --------------------------------------------------------------------
                                           
                                           P_RD            EQU     0
                                           P_WR            EQU     1
                                           P_CS            EQU     2
                                           
                                               UDATA
                                           LO_ADDR RES     1
                                           HI_ADDR RES     1
                                           DREG    RES     1
                                           
                                           MODE            RES     1
                                           TEMP_MODE       RES     1
                                           
                                               CODE
                                           
                                           ;== Z80 Bus interfacing functions =============================================
                                           
                                           ;******************************************************************************
                                           ;*                                                                            *
                                           ;* ensure_master - if in slave mode acquire DMA control and return.           *
                                           ;*                 otherwise return immediately.  Note current state.         *
                                           ;*                                                                            *
                                           ;* Inputs:  NONE                                                              *
                                           ;* Outputs: NONE                                                              *
                                           ;* Called:  set_master                                                        *
                                           ;* Changes: TEMP_MODE                                                         *
                                           ;*                                                                            *
                                           ;******************************************************************************
                                           
                                           ensure_master
                                               ; check_mode
000952   518c     movf	0x8c, 0, 0x1            movf        MODE,w
000954   6f8d     movwf	0x8d, 0x1              movwf       TEMP_MODE       ; save the mode at the entry to this function
000956   0a00     xorlw	0                      xorlw       0x00     
000958   e001     bz	0x95c                     bz          ensure_master_not_master
00095a   0012     return	0                     return                      ; already master so just return
                                           ensure_master_not_master
                                               ; not master need to get DMA mode
00095c   ecc4     call	0x988, 0                call        get_dma
00095e   f004
000960   0012     return	0                     return
                                           
                                           ;******************************************************************************
                                           ;*                                                                            *
                                           ;* revert_master - set master mode back to the mode in TEMP_MODE              *
                                           ;*                                                                            *
                                           ;******************************************************************************
                                           
                                           revert_master
000962   518c     movf	0x8c, 0, 0x1            movf        MODE,w
000964   198d     xorwf	0x8d, 0, 0x1           xorwf       TEMP_MODE,w
000966   e101     bnz	0x96a                    bnz         revert_master_needs_change
000968   0012     return	0                     return              ; MODE and TEMP_MODE matched don't change
                                           revert_master_needs_change
00096a   b18d     btfsc	0x8d, 0, 0x1           btfsc       TEMP_MODE,0     ; test reset mode bit
00096c   efbe     goto	0x97c                   goto        revert_master_reset
00096e   f004
000970   b38d     btfsc	0x8d, 0x1, 0x1         btfsc       TEMP_MODE,1     ; test DMA master mode bit
000972   efc1     goto	0x982                   goto        revert_master_dma
000974   f004
                                               ; if neither of those need to switch back to slave
000976   ecda     call	0x9b4, 0                call        get_slave
000978   f004
00097a   0012     return	0                     return
                                           
                                           revert_master_reset
00097c   eccc     call	0x998, 0                call        get_reset       ; assert the reset line
00097e   f004
000980   0012     return	0                     return
                                           
                                           revert_master_dma
000982   ecc4     call	0x988, 0                call        get_dma         ; get DMA control
000984   f004
000986   0012     return	0                     return
                                           
                                           
                                           get_dma
000988   9289     bcf	0x89, 0x1, 0             bcf         LATA,1          ; assert the BUSRQ signal low
                                           get_dma_loop
00098a   b082     btfsc	0x82, 0, 0             btfsc       PORTC,0         ; wait for BUSACK to go low
00098c   d7fe     bra	0x98a                    bra         get_dma_loop
00098e   0e02     movlw	0x2                    movlw       0x02
000990   6f8c     movwf	0x8c, 0x1              movwf       MODE            ; set mode to DMA master
000992   ecde     call	0x9bc, 0                call        set_master
000994   f004
000996   0012     return	0                     return
                                           
                                           get_reset
000998   9089     bcf	0x89, 0, 0               bcf         LATA,0          ; pull reset low
00099a   0000     nop                          nop
00099c   0000     nop                          nop
00099e   0000     nop                          nop
0009a0   0000     nop                          nop
0009a2   0000     nop                          nop
0009a4   0000     nop                          nop
0009a6   0000     nop                          nop
0009a8   0000     nop                          nop                         ; leave time for the M cycle to finish
0009aa   0e01     movlw	0x1                    movlw       0x01
0009ac   6f8c     movwf	0x8c, 0x1              movwf       MODE
0009ae   ecde     call	0x9bc, 0                call        set_master
0009b0   f004
0009b2   0012     return	0                     return
                                           
                                           get_slave
0009b4   6b8c     clrf	0x8c, 0x1               clrf        MODE            ; set mode to slave
0009b6   ece8     call	0x9d0, 0                call        set_slave       ; set IO into slave mode
0009b8   f004
0009ba   0012     return	0                     return
                                           ;******************************************************************************
                                           ;*                                                                            *
                                           ;* set_master - configure pins so PIC is master device                        *
                                           ;*                                                                            *
                                           ;* Inputs:  NONE                                                              *
                                           ;* Outputs: NONE                                                              *
                                           ;* Called:                                                                    *
                                           ;* Changes: TRISB, TRISE, TRISA                                               *
                                           ;*                                                                            *
                                           ;******************************************************************************
                                           
                                           set_master
                                           
                                           
                                               ; set the address pins to output
0009bc   6a93     clrf	0x93, 0                 clrf        TRISB
0009be   0eec     movlw	0xec                   movlw       b'11101100'     ;RD and WR as output, disable PSP
0009c0   1696     andwf	0x96, 0x1, 0           andwf       TRISE,f
0009c2   0eff     movlw	0xff                   movlw       0xFF
0009c4   6e8d     movwf	0x8d, 0                movwf       LATE            ;set RD and WR High
                                           
0009c6   0ed0     movlw	0xd0                   movlw       b'11010000'
0009c8   1692     andwf	0x92, 0x1, 0           andwf       TRISA,f
0009ca   0e3c     movlw	0x3c                   movlw       b'00111100'
0009cc   1289     iorwf	0x89, 0x1, 0           iorwf       LATA,f
0009ce   0012     return	0                     return
                                           
                                           set_slave
0009d0   6893     setf	0x93, 0                 setf        TRISB
0009d2   0e17     movlw	0x17                   movlw       b'00010111'     ; PSP mode
0009d4   6e96     movwf	0x96, 0                movwf       TRISE
0009d6   6889     setf	0x89, 0                 setf        LATA            ; all pins in A are high or don't care
0009d8   0ecc     movlw	0xcc                   movlw       b'11001100'     ; MREQ, IORQ input
0009da   6e92     movwf	0x92, 0                movwf       TRISA
0009dc   0012     return	0                     return
                                           
                                           ;******************************************************************************
                                           ;*                                                                            *
                                           ;* io_read - Read an address on the IO bus                                    *
                                           ;*                                                                            *
                                           ;* Inputs:  HI_ADDR, LO_ADDR                                                  *
                                           ;* Outputs: DREG                                                              *
                                           ;* Called:                                                                    *
                                           ;* Changes:                                                                   *
                                           ;*                                                                            *
                                           ;* Asssumes the PIC is in master mode (WAIT in, RD,WR,IORQ,MREQ and ADDR out  *
                                           ;*                                                                            *
                                           ;******************************************************************************
                                           
                                           io_read
                                               ; set address
0009de   518a     movf	0x8a, 0, 0x1            movf    HI_ADDR,w
0009e0   6e8a     movwf	0x8a, 0                movwf   LATB
0009e2   9a89     bcf	0x89, 0x5, 0             bcf     LATA,P_HI_LAT
0009e4   5189     movf	0x89, 0, 0x1            movf    LO_ADDR,w
0009e6   8a89     bsf	0x89, 0x5, 0             bsf     LATA,P_HI_LAT
0009e8   6e8a     movwf	0x8a, 0                movwf   LATB
                                               ; 200ns delay before IORQ and RD
0009ea   0000     nop                          nop
0009ec   9689     bcf	0x89, 0x3, 0             bcf     LATA,P_IORQ
0009ee   908d     bcf	0x8d, 0, 0               bcf     LATE,P_RD
0009f0   0000     nop                          nop
                                               ; mandatory wait state
                                           io_read_wait_loop
0009f2   a880     btfss	0x80, 0x4, 0           btfss   PORTA,P_WAIT
0009f4   d7fe     bra	0x9f2                    bra     io_read_wait_loop
                                               ; store the read data
0009f6   5083     movf	0x83, 0, 0              movf    PORTD,w
                                               ;release IORQ and RD
0009f8   808d     bsf	0x8d, 0, 0               bsf     LATE,P_RD
0009fa   8689     bsf	0x89, 0x3, 0             bsf     LATA,P_IORQ
0009fc   6f8b     movwf	0x8b, 0x1              movwf   DREG
0009fe   0012     return	0                     return
                                           
                                           ;******************************************************************************
                                           ;*                                                                            *
                                           ;* io_write - Write an address on the IO bus                                  *
                                           ;*                                                                            *
                                           ;* Inputs:  HI_ADDR, LO_ADDR, DREG                                            *
                                           ;* Outputs: NONE                                                              *
                                           ;* Called:                                                                    *
                                           ;* Changes:                                                                   *
                                           ;*                                                                            *
                                           ;* Asssumes the PIC is in master mode (WAIT in, RD,WR,IORQ,MREQ and ADDR out  *
                                           ;*                                                                            *
                                           ;******************************************************************************
                                           
                                           io_write
                                               ; set address
000a00   518a     movf	0x8a, 0, 0x1            movf        HI_ADDR,w
000a02   6e8a     movwf	0x8a, 0                movwf       LATB
000a04   9a89     bcf	0x89, 0x5, 0             bcf         LATA,P_HI_LAT
000a06   5189     movf	0x89, 0, 0x1            movf        LO_ADDR,w
000a08   8a89     bsf	0x89, 0x5, 0             bsf         LATA,P_HI_LAT
000a0a   6e8a     movwf	0x8a, 0                movwf       LATB
                                               ; 200ns delay before IORQ and RD
000a0c   518b     movf	0x8b, 0, 0x1            movf        DREG,w          ; write the data to the bus
000a0e   6e8c     movwf	0x8c, 0                movwf       LATD
000a10   6a95     clrf	0x95, 0                 clrf        TRISD           ; don't forget to drive the bus for a write!!
000a12   9689     bcf	0x89, 0x3, 0             bcf         LATA,P_IORQ
000a14   928d     bcf	0x8d, 0x1, 0             bcf         LATE,P_WR
000a16   0000     nop                          nop
                                               ; mandatory wait state
                                           io_write_wait_loop
000a18   a880     btfss	0x80, 0x4, 0           btfss       PORTA,P_WAIT
000a1a   d7fe     bra	0xa18                    bra         io_write_wait_loop
                                               ;release IORQ and RD
000a1c   828d     bsf	0x8d, 0x1, 0             bsf         LATE,P_WR
000a1e   8689     bsf	0x89, 0x3, 0             bsf         LATA,P_IORQ
000a20   6895     setf	0x95, 0                 setf        TRISD           ; stop driving the bus again
000a22   0012     return	0                     return
                                           
                                           ;******************************************************************************
                                           ;*                                                                            *
                                           ;* mem_read - Read from an address on the memory bus                          *
                                           ;*                                                                            *
                                           ;* Inputs:  HI_ADDR, LO_ADDR                                                  *
                                           ;* Outputs: DREG                                                              *
                                           ;* Called:                                                                    *
                                           ;* Changes:                                                                   *
                                           ;*                                                                            *
                                           ;* Asssumes the PIC is in master mode (WAIT in, RD,WR,IORQ,MREQ and ADDR out) *
                                           ;*                                                                            *
                                           ;******************************************************************************
                                           
                                           mem_read
                                               ; set address
000a24   518a     movf	0x8a, 0, 0x1            movf    HI_ADDR,w
000a26   6e8a     movwf	0x8a, 0                movwf   LATB
000a28   9a89     bcf	0x89, 0x5, 0             bcf     LATA,P_HI_LAT
000a2a   5189     movf	0x89, 0, 0x1            movf    LO_ADDR,w
000a2c   8a89     bsf	0x89, 0x5, 0             bsf     LATA,P_HI_LAT
000a2e   6e8a     movwf	0x8a, 0                movwf   LATB
000a30   9489     bcf	0x89, 0x2, 0             bcf     LATA,P_MREQ
000a32   908d     bcf	0x8d, 0, 0               bcf     LATE,P_RD
                                           mem_read_wait_loop
000a34   a880     btfss	0x80, 0x4, 0           btfss   PORTA,P_WAIT
000a36   d7fe     bra	0xa34                    bra     mem_read_wait_loop
                                               ; store the read data
000a38   5083     movf	0x83, 0, 0              movf    PORTD,w
                                               ;release IORQ and RD
000a3a   808d     bsf	0x8d, 0, 0               bsf     LATE,P_RD
000a3c   8489     bsf	0x89, 0x2, 0             bsf     LATA,P_MREQ
000a3e   6f8b     movwf	0x8b, 0x1              movwf   DREG
000a40   0012     return	0                     return
                                           
                                           ;******************************************************************************
                                           ;*                                                                            *
                                           ;* mem_write - Write to an address on the memory bus                          *
                                           ;*                                                                            *
                                           ;* Inputs:  HI_ADDR, LO_ADDR, DREG                                            *
                                           ;* Outputs: NONE                                                              *
                                           ;* Called:                                                                    *
                                           ;* Changes:                                                                   *
                                           ;*                                                                            *
                                           ;* Asssumes the PIC is in master mode (WAIT in, RD,WR,IORQ,MREQ and ADDR out) *
                                           ;*                                                                            *
                                           ;******************************************************************************
                                           
                                           mem_write
                                               ; set address
000a42   518a     movf	0x8a, 0, 0x1            movf        HI_ADDR,w
000a44   6e8a     movwf	0x8a, 0                movwf       LATB
000a46   9a89     bcf	0x89, 0x5, 0             bcf         LATA,P_HI_LAT
000a48   5189     movf	0x89, 0, 0x1            movf        LO_ADDR,w
000a4a   8a89     bsf	0x89, 0x5, 0             bsf         LATA,P_HI_LAT
000a4c   6e8a     movwf	0x8a, 0                movwf       LATB
                                               ; 200ns delay before IORQ and RD
000a4e   518b     movf	0x8b, 0, 0x1            movf        DREG,w          ; write the data to the bus
000a50   6e8c     movwf	0x8c, 0                movwf       LATD
000a52   6a95     clrf	0x95, 0                 clrf        TRISD           ; don't forget to drive the bus for a write!!
000a54   9489     bcf	0x89, 0x2, 0             bcf         LATA,P_MREQ
000a56   928d     bcf	0x8d, 0x1, 0             bcf         LATE,P_WR
                                               ; mandatory wait state
                                           mem_write_wait_loop
000a58   a880     btfss	0x80, 0x4, 0           btfss       PORTA,P_WAIT
000a5a   d7fe     bra	0xa58                    bra         mem_write_wait_loop
                                               ;release IORQ and RD
000a5c   828d     bsf	0x8d, 0x1, 0             bsf         LATE,P_WR
000a5e   8489     bsf	0x89, 0x2, 0             bsf         LATA,P_MREQ
000a60   6895     setf	0x95, 0                 setf        TRISD           ; stop driving the bus again
000a62   0012     return	0                     return
                                           
                                           
                                           ; == Export these refs ========================================================
                                           
                                               GLOBAL      HI_ADDR
                                               GLOBAL      LO_ADDR
                                               GLOBAL      DREG
                                           
                                               GLOBAL      get_reset
                                               GLOBAL      get_dma
                                               GLOBAL      get_slave
                                               GLOBAL      ensure_master
                                               GLOBAL      revert_master
                                               GLOBAL      io_read
                                               GLOBAL      io_write
                                               GLOBAL      mem_read
                                               GLOBAL      mem_write
                                           end
                                           ;==============================================================================
                                           ;    boot.asm
                                           ;==============================================================================
                                           
                                           ;------------------------------------------------------------------------------
                                           ;
                                           ; Simple Debug Kernel for CPU supervisor on Z80 Project Mark 2
                                           ; File Version 2 - 17 Oct 09
                                           ; hairymnstr@gmail.com
                                           ;
                                           ; Copyright (C) 2009  Nathan Dumont
                                           ;
                                           ; This program is free software: you can redistribute it and/or modify
                                           ; it under the terms of the GNU General Public License as published by
                                           ; the Free Software Foundation, either version 3 of the License, or
                                           ; (at your option) any later version.
                                           ;
                                           ; This program is distributed in the hope that it will be useful,
                                           ; but WITHOUT ANY WARRANTY; without even the implied warranty of
                                           ; MERCHANTABILITY or FITNESS FOR A PARTICULAR PURPOSE.  See the
                                           ; GNU General Public License for more details.
                                           ;
                                           ; You should have received a copy of the GNU General Public License
                                           ; along with this program.  If not, see <http://www.gnu.org/licenses/>.
                                           ;
                                           ;
                                           ;------------------------------------------------------------------------------
                                           
                                           list p=18f4520
                                           #include <p18f4520.inc>
                                                   LIST
                                           
                                           ;==========================================================================
                                           ;  MPASM PIC18F4520 processor include
                                           ; 
                                           ;  (c) Copyright 1999-2007 Microchip Technology, All rights reserved
                                           ;==========================================================================
                                           
                                                   NOLIST
                                           #include "portpins.inc"
                                           ;== PORT Definitions ==========================================================
                                           
                                           ;-- PORT A --------------------------------------------------------------------
                                           
                                           P_RESET         EQU     0
                                           P_BUSRQ         EQU     1
                                           P_MREQ          EQU     2
                                           P_IORQ          EQU     3
                                           P_WAIT          EQU     4
                                           P_HI_LAT        EQU     5
                                           
                                           ;-- PORT C --------------------------------------------------------------------
                                           
                                           P_BUSACK        EQU     0
                                           P_SD_CS         EQU     1
                                           P_CLK           EQU     2
                                           P_SD_CK         EQU     3
                                           P_SD_DI         EQU     4
                                           P_SD_DO         EQU     5
                                           P_TX            EQU     6
                                           P_RX            EQU     7
                                           
                                           ;-- PORT E --------------------------------------------------------------------
                                           
                                           P_RD            EQU     0
                                           P_WR            EQU     1
                                           P_CS            EQU     2
                                           
                                           ; -- Externals From host_bus.asm ----------------------------------------------
                                           
                                               EXTERN      ensure_master
                                               EXTERN      revert_master
                                               EXTERN      mem_write
                                           
                                               EXTERN      DREG
                                               EXTERN      HI_ADDR
                                               EXTERN      LO_ADDR
                                           
                                             UDATA
                                           
                                           WRCOUNT         RES     1
                                           BOOTWR_FLAGS      RES     1
                                           
                                             CODE
                                           
                                           boot_init
                                           
                                           ; set up the PWM peripheral that's going to generate the clock
000a64   0e27     movlw	0x27                   movlw       d'39'            ; Frequency setting  1 = 5MHz, 2 = 3.33MHz, 
                                                                            ;                    3 = 2.5MHz, 39 = 250kHz
000a66   6ecb     movwf	0xcb, 0                movwf       PR2
                                           ; Duty cycle 1/2 
                                           ; 10 bit value bits <9:2> in CCPR1L
                                           ;              bits <1:0> in CCP1CON<5:4>
                                           ; 5MHz = 4    (b'0000000100' - 0x01 & b'00')
                                           ; 3.33MHz = 6 (b'0000000110' - 0x01 & b'10')
                                           ; 2.5MHz = 16 (b'0000010000' - 0x02 & b'00')
                                           ; 250kHz = 80 (b'0001010000' - 0x14 & b'00')
                                           ; CCP1CON<7:6> 00 - single output
                                           ; CCP1CON<5:4> xx - see above
                                           ; CCP1CON<3:0> 1100 - PWM mode
000a68   0e0c     movlw	0xc                    movlw       b'00001100'
000a6a   6ebd     movwf	0xbd, 0                movwf       CCP1CON
000a6c   0e14     movlw	0x14                   movlw       0x14
000a6e   6ebe     movwf	0xbe, 0                movwf       CCPR1L          
                                           
000a70   9494     bcf	0x94, 0x2, 0             bcf         TRISC,P_CLK     ; pin as output
                                               
000a72   0e04     movlw	0x4                    movlw       b'00000100'     ; T2 on, no pre or post scale
000a74   6eca     movwf	0xca, 0                movwf       T2CON
                                           
000a76   0012     return	0                     return
                                           
                                           ;*******************************************************************************
                                           ;*  boot_load - loads the boot ROM from the PIC's flash to system memory       *
                                           ;*******************************************************************************
                                           boot_load
                                               ; make sure that the Z80 is a slave
000a78   eca9     call	0x952, 0                call	ensure_master
000a7a   f004
                                           
                                               ; set up the table read pointers
                                           
000a7c   6af8     clrf	0xf8, 0                 clrf        TBLPTRU
000a7e   0e60     movlw	0x60                   movlw       0x60
000a80   6ef7     movwf	0xf7, 0                movwf       TBLPTRH
000a82   6af6     clrf	0xf6, 0                 clrf        TBLPTRL
                                           
                                               ; set up EECON1 for Flash memory read
                                               
000a84   0e80     movlw	0x80                   movlw       b'10000000'
000a86   6ea6     movwf	0xa6, 0                movwf       EECON1
                                           
                                               ; now loop over all 8KB of data
000a88   6b8a     clrf	0x8a, 0x1               clrf        HI_ADDR
000a8a   6b89     clrf	0x89, 0x1               clrf        LO_ADDR
                                           
                                           boot_load_loop
000a8c   0009     tblrd	*+                     tblrd*+             ; copy a byte into TABLAT
000a8e   cff5     movff	0xff5, 0x8b            movff       TABLAT,DREG
000a90   f08b
000a92   ec21     call	0xa42, 0                call        mem_write
000a94   f005
000a96   3f89     incfsz	0x89, 0x1, 0x1        incfsz      LO_ADDR,f
000a98   d7f9     bra	0xa8c                    bra         boot_load_loop
000a9a   2b8a     incf	0x8a, 0x1, 0x1          incf        HI_ADDR,f
000a9c   518a     movf	0x8a, 0, 0x1            movf        HI_ADDR,w
000a9e   0a20     xorlw	0x20                   xorlw       0x20
000aa0   e1f5     bnz	0xa8c                    bnz         boot_load_loop
                                           
                                               ; all done, release the bus if we claimed it and return
000aa2   ecb1     call	0x962, 0                call        revert_master
000aa4   f004
                                           
000aa6   0012     return	0                     return
                                           
                                           
                                           ;*******************************************************************************
                                           ;*  boot_update - copy a 128 byte packet from RX buffer to flash               *
                                           ;*    This is called repeatedly from serial.asm after an update BIOS command   *
                                           ;*    is sent from a PC.                                                       *
                                           ;*******************************************************************************
                                           boot_update
                                               ; first two bytes in the RX buffer are the start address in FLASH
                                               ; they've already been checked so just trust them
                                               ; FSR0L is already pointing at the high address
                                           
000aa8   6af8     clrf	0xf8, 0                 clrf        TBLPTRU
000aaa   50ee     movf	0xee, 0, 0              movf        POSTINC0,w
000aac   6ef7     movwf	0xf7, 0                movwf       TBLPTRH
000aae   50ee     movf	0xee, 0, 0              movf        POSTINC0,w
000ab0   6ef6     movwf	0xf6, 0                movwf       TBLPTRL
                                           
000ab2   818f     bsf	0x8f, 0, 0x1             bsf         BOOTWR_FLAGS,0
                                               ; next code gets run twice because you can only erase data in 64 byte blocks
                                           boot_update_erase
                                               ; erase a block
000ab4   8ea6     bsf	0xa6, 0x7, 0             bsf         EECON1, EEPGD
000ab6   9ca6     bcf	0xa6, 0x6, 0             bcf         EECON1, CFGS
000ab8   84a6     bsf	0xa6, 0x2, 0             bsf         EECON1, WREN
000aba   88a6     bsf	0xa6, 0x4, 0             bsf         EECON1, FREE
000abc   9ef2     bcf	0xf2, 0x7, 0             bcf         INTCON, GIE
                                           
000abe   0e55     movlw	0x55                   movlw       0x55
000ac0   6ea7     movwf	0xa7, 0                movwf       EECON2
000ac2   0eaa     movlw	0xaa                   movlw       0x0AA
000ac4   6ea7     movwf	0xa7, 0                movwf       EECON2
000ac6   82a6     bsf	0xa6, 0x1, 0             bsf         EECON1, WR              ; actual erase command up to 2 ms
                                           
000ac8   8ef2     bsf	0xf2, 0x7, 0             bsf         INTCON, GIE     ; re-enable interrupts
000aca   000a     tblrd	*-                     tblrd*-                     ; dummy decrement, we're going to use pre-inc
                                                                           ; to write so the pointer is still in the
                                                                           ; block when we call write
                                           
000acc   838f     bsf	0x8f, 0x1, 0x1           bsf         BOOTWR_FLAGS,1  ; flag to see how many times we've done this
                                               ; write a 32 byte block, happens twice
                                           boot_update_write
000ace   0e20     movlw	0x20                   movlw       d'32'
000ad0   6f8e     movwf	0x8e, 0x1              movwf       WRCOUNT
                                           
                                           boot_update_write_loop
000ad2   50ee     movf	0xee, 0, 0              movf        POSTINC0,w
000ad4   6ef5     movwf	0xf5, 0                movwf       TABLAT
000ad6   000f     tblwt	+*                     tblwt+*
000ad8   2f8e     decfsz	0x8e, 0x1, 0x1        decfsz      WRCOUNT,f
000ada   d7fb     bra	0xad2                    bra         boot_update_write_loop
                                           
                                               ; written 32 bytes to tablat, now need to initiate the write
000adc   8ea6     bsf	0xa6, 0x7, 0             bsf         EECON1, EEPGD
000ade   9ca6     bcf	0xa6, 0x6, 0             bcf         EECON1, CFGS
000ae0   84a6     bsf	0xa6, 0x2, 0             bsf         EECON1, WREN
000ae2   9ef2     bcf	0xf2, 0x7, 0             bcf         INTCON, GIE
                                           
000ae4   0e55     movlw	0x55                   movlw       0x55
000ae6   6ea7     movwf	0xa7, 0                movwf       EECON2
000ae8   0eaa     movlw	0xaa                   movlw       0x0AA
000aea   6ea7     movwf	0xa7, 0                movwf       EECON2
000aec   82a6     bsf	0xa6, 0x1, 0             bsf         EECON1, WR
                                           
000aee   8ef2     bsf	0xf2, 0x7, 0             bsf         INTCON, GIE
000af0   94a6     bcf	0xa6, 0x2, 0             bcf         EECON1, WREN
                                           
000af2   a38f     btfss	0x8f, 0x1, 0x1         btfss       BOOTWR_FLAGS,1
000af4   d002     bra	0xafa                    bra         boot_update_second_erase
                                           
000af6   938f     bcf	0x8f, 0x1, 0x1           bcf         BOOTWR_FLAGS,1
000af8   d7ea     bra	0xace                    bra         boot_update_write
                                           
                                           boot_update_second_erase
000afa   a18f     btfss	0x8f, 0, 0x1           btfss       BOOTWR_FLAGS,0
000afc   ef84     goto	0xb08                   goto        boot_verify
000afe   f005
000b00   918f     bcf	0x8f, 0, 0x1             bcf         BOOTWR_FLAGS,0
000b02   0009     tblrd	*+                     tblrd*+                     ; dummy increment to make sure we erase the next block
000b04   ef5a     goto	0xab4                   goto        boot_update_erase
000b06   f005
                                           
                                           boot_verify
                                               ; check through all the bytes just written to flash and make sure they
                                               ; match.  Then build a report packet accordingly
000b08   858f     bsf	0x8f, 0x2, 0x1           bsf         BOOTWR_FLAGS,2  ; set a flag, this gets cleared if we find an
                                                                           ; error
                                           
000b0a   0e01     movlw	0x1                    movlw       0x1
000b0c   6eea     movwf	0xea, 0                movwf       FSR0H
000b0e   0e02     movlw	0x2                    movlw       0x02            ; need to skip the command and length bytes
000b10   6ee9     movwf	0xe9, 0                movwf       FSR0L
                                           
                                               ; set the table pointer
000b12   6af8     clrf	0xf8, 0                 clrf        TBLPTRU
000b14   50ee     movf	0xee, 0, 0              movf        POSTINC0,w
000b16   6ef7     movwf	0xf7, 0                movwf       TBLPTRH
000b18   50ee     movf	0xee, 0, 0              movf        POSTINC0,w
000b1a   6ef6     movwf	0xf6, 0                movwf       TBLPTRL
                                           
000b1c   0e80     movlw	0x80                   movlw       0x80
000b1e   6f8e     movwf	0x8e, 0x1              movwf       WRCOUNT
                                           
                                           boot_verify_loop
000b20   50ee     movf	0xee, 0, 0              movf        POSTINC0,w
000b22   0009     tblrd	*+                     tblrd*+
000b24   18f5     xorwf	0xf5, 0, 0             xorwf       TABLAT,w
000b26   a4d8     btfss	0xd8, 0x2, 0           btfss       STATUS,Z
000b28   958f     bcf	0x8f, 0x2, 0x1           bcf         BOOTWR_FLAGS,2
000b2a   2f8e     decfsz	0x8e, 0x1, 0x1        decfsz      WRCOUNT,f
000b2c   d7f9     bra	0xb20                    bra         boot_verify_loop
                                           
                                               ; all verified, need to make a response packet based on the OK flag
000b2e   a58f     btfss	0x8f, 0x2, 0x1         btfss       BOOTWR_FLAGS,2
000b30   d00a     bra	0xb46                    bra         boot_verify_nak
                                           
                                               ; got here so write went according to plan
000b32   0e02     movlw	0x2                    movlw       0x2
000b34   6ee2     movwf	0xe2, 0                movwf       FSR1H
000b36   6ae1     clrf	0xe1, 0                 clrf        FSR1L
                                           
000b38   0e08     movlw	0x8                    movlw       0x08            ; successful command 8 executed
000b3a   6ee6     movwf	0xe6, 0                movwf       POSTINC1
000b3c   0e00     movlw	0                      movlw       0x00            ; no data, just ack
000b3e   6ee6     movwf	0xe6, 0                movwf       POSTINC1
000b40   0e08     movlw	0x8                    movlw       0x08            ; hard coded checksum Oo
000b42   6ee6     movwf	0xe6, 0                movwf       POSTINC1
                                           
000b44   0012     return	0                     return
                                           
                                           boot_verify_nak
                                               ; there must have been an error in the memory writing, send a NAK
000b46   0e02     movlw	0x2                    movlw       0x02
000b48   6ee2     movwf	0xe2, 0                movwf       FSR1H
000b4a   6ae1     clrf	0xe1, 0                 clrf        FSR1L
                                           
                                               ; going to cheat and use the WRCOUNT as a checksum holder
000b4c   6b8e     clrf	0x8e, 0x1               clrf        WRCOUNT
                                           
000b4e   0e48     movlw	0x48                   movlw       0x48            ; nak for command 8
000b50   6ee6     movwf	0xe6, 0                movwf       POSTINC1
000b52   1b8e     xorwf	0x8e, 0x1, 0x1         xorwf       WRCOUNT,f
000b54   0e02     movlw	0x2                    movlw       0x02            ; only the error code to reply with
000b56   6ee6     movwf	0xe6, 0                movwf       POSTINC1
000b58   1b8e     xorwf	0x8e, 0x1, 0x1         xorwf       WRCOUNT,f
000b5a   0e00     movlw	0                      movlw       0x00
000b5c   6ee6     movwf	0xe6, 0                movwf       POSTINC1
000b5e   1b8e     xorwf	0x8e, 0x1, 0x1         xorwf       WRCOUNT,f
000b60   0e08     movlw	0x8                    movlw       0x08            ; verification error number
000b62   6ee6     movwf	0xe6, 0                movwf       POSTINC1
000b64   1b8e     xorwf	0x8e, 0x1, 0x1         xorwf       WRCOUNT,f
000b66   518e     movf	0x8e, 0, 0x1            movf        WRCOUNT,w
000b68   6ee6     movwf	0xe6, 0                movwf       POSTINC1        ; add the checksum
                                           
000b6a   0012     return	0                     return
                                               
                                           
                                           ; == Export These ==============================================================
                                           
                                               GLOBAL      boot_init
                                               GLOBAL      boot_load
                                               GLOBAL      boot_update
                                           
                                           end
                                           
                                           list p=18f4520
                                           #include <p18f4520.inc>
                                                   LIST
                                           
                                           ;==========================================================================
                                           ;  MPASM PIC18F4520 processor include
                                           ; 
                                           ;  (c) Copyright 1999-2007 Microchip Technology, All rights reserved
                                           ;==========================================================================
                                           
                                                   NOLIST
                                           
                                               org 0x6000
                                           
006000   ff21     dw	0xff21  ;unknown opcode     data 0xFF21, 0xF97F, 0x103E, 0xFF06 ; 6000
006002   f97f     dw	0xf97f  ;unknown opcode 
006004   103e     iorwf	0x3e, 0, 0         
006006   ff06     dw	0xff06  ;unknown opcode 
006008   ff0e     dw	0xff0e  ;unknown opcode     data 0xFF0E, 0x2B3A, 0x3C00, 0x01D3 ; 6008
00600a   2b3a     incf	0x3a, 0x1, 0x1      
00600c   3c00     incfsz	0, 0, 0           
00600e   01d3     movlb	0xd3               
006010   2b32     incf	0x32, 0x1, 0x1          data 0x2B32, 0x1600, 0xCD61, 0x0020 ; 6010
006012   1600     andwf	0, 0x1, 0          
006014   cd61     movff	0xd61, 0x20        
006016   0020
006018   fe10     dw	0xfe10  ;unknown opcode     data 0xFE10, 0x200D, 0xC3FB, 0x0006 ; 6018
00601a   200d     addwfc	0xd, 0, 0         
00601c   c3fb     movff	0x3fb, 0x6         
00601e   0006
006020   01db     movlb	0xdb                   data 0x01DB, 0x10E6, 0xFA28, 0x000E ; 6020
006022   10e6     iorwf	0xe6, 0, 0         
006024   fa28     dw	0xfa28  ;unknown opcode 
006026   000e     tblwt	*-                 
006028   51ed     movf	0xed, 0, 0x1            data 0x51ED, 0x00C9, 0x0000, 0x0000 ; 6028
00602a   00c9     dw	0xc9  ;unknown opcode 
00602c   0000     nop                      
00602e   0000     nop                      
006030   0000     nop                          data 0x0000, 0x0000, 0x0000, 0x0000 ; 6030
006032   0000     nop                      
006034   0000     nop                      
006036   0000     nop                      
006038   0000     nop                          data 0x0000, 0x0000, 0x0000, 0x0000 ; 6038
00603a   0000     nop                      
00603c   0000     nop                      
00603e   0000     nop                      
006040   0000     nop                          data 0x0000, 0x0000, 0x0000, 0x0000 ; 6040
006042   0000     nop                      
006044   0000     nop                      
006046   0000     nop                      
006048   0000     nop                          data 0x0000, 0x0000, 0x0000, 0x0000 ; 6048
00604a   0000     nop                      
00604c   0000     nop                      
00604e   0000     nop                      
006050   0000     nop                          data 0x0000, 0x0000, 0x0000, 0x0000 ; 6050
006052   0000     nop                      
006054   0000     nop                      
006056   0000     nop                      
006058   0000     nop                          data 0x0000, 0x0000, 0x0000, 0x0000 ; 6058
00605a   0000     nop                      
00605c   0000     nop                      
00605e   0000     nop                      
006060   0000     nop                          data 0x0000, 0x0000, 0x0000, 0x0000 ; 6060
006062   0000     nop                      
006064   0000     nop                      
006066   0000     nop                      
006068   0000     nop                          data 0x0000, 0x0000, 0x0000, 0x0000 ; 6068
00606a   0000     nop                      
00606c   0000     nop                      
00606e   0000     nop                      
006070   0000     nop                          data 0x0000, 0x0000, 0x0000, 0x0000 ; 6070
006072   0000     nop                      
006074   0000     nop                      
006076   0000     nop                      
006078   0000     nop                          data 0x0000, 0x0000, 0x0000, 0x0000 ; 6078
00607a   0000     nop                      
00607c   0000     nop                      
00607e   0000     nop                      
006080   0000     nop                          data 0x0000, 0x0000, 0x0000, 0x0000 ; 6080
006082   0000     nop                      
006084   0000     nop                      
006086   0000     nop                      
006088   0000     nop                          data 0x0000, 0x0000, 0x0000, 0x0000 ; 6088
00608a   0000     nop                      
00608c   0000     nop                      
00608e   0000     nop                      
006090   0000     nop                          data 0x0000, 0x0000, 0x0000, 0x0000 ; 6090
006092   0000     nop                      
006094   0000     nop                      
006096   0000     nop                      
006098   0000     nop                          data 0x0000, 0x0000, 0x0000, 0x0000 ; 6098
00609a   0000     nop                      
00609c   0000     nop                      
00609e   0000     nop                      
0060a0   0000     nop                          data 0x0000, 0x0000, 0x0000, 0x0000 ; 60A0
0060a2   0000     nop                      
0060a4   0000     nop                      
0060a6   0000     nop                      
0060a8   0000     nop                          data 0x0000, 0x0000, 0x0000, 0x0000 ; 60A8
0060aa   0000     nop                      
0060ac   0000     nop                      
0060ae   0000     nop                      
0060b0   0000     nop                          data 0x0000, 0x0000, 0x0000, 0x0000 ; 60B0
0060b2   0000     nop                      
0060b4   0000     nop                      
0060b6   0000     nop                      
0060b8   0000     nop                          data 0x0000, 0x0000, 0x0000, 0x0000 ; 60B8
0060ba   0000     nop                      
0060bc   0000     nop                      
0060be   0000     nop                      
0060c0   0000     nop                          data 0x0000, 0x0000, 0x0000, 0x0000 ; 60C0
0060c2   0000     nop                      
0060c4   0000     nop                      
0060c6   0000     nop                      
0060c8   0000     nop                          data 0x0000, 0x0000, 0x0000, 0x0000 ; 60C8
0060ca   0000     nop                      
0060cc   0000     nop                      
0060ce   0000     nop                      
0060d0   0000     nop                          data 0x0000, 0x0000, 0x0000, 0x0000 ; 60D0
0060d2   0000     nop                      
0060d4   0000     nop                      
0060d6   0000     nop                      
0060d8   0000     nop                          data 0x0000, 0x0000, 0x0000, 0x0000 ; 60D8
0060da   0000     nop                      
0060dc   0000     nop                      
0060de   0000     nop                      
0060e0   0000     nop                          data 0x0000, 0x0000, 0x0000, 0x0000 ; 60E0
0060e2   0000     nop                      
0060e4   0000     nop                      
0060e6   0000     nop                      
0060e8   0000     nop                          data 0x0000, 0x0000, 0x0000, 0x0000 ; 60E8
0060ea   0000     nop                      
0060ec   0000     nop                      
0060ee   0000     nop                      
0060f0   0000     nop                          data 0x0000, 0x0000, 0x0000, 0x0000 ; 60F0
0060f2   0000     nop                      
0060f4   0000     nop                      
0060f6   0000     nop                      
0060f8   0000     nop                          data 0x0000, 0x0000, 0x0000, 0x0000 ; 60F8
0060fa   0000     nop                      
0060fc   0000     nop                      
0060fe   0000     nop                      
006100   0000     nop                          data 0x0000, 0x0000, 0x0000, 0x0000 ; 6100
006102   0000     nop                      
006104   0000     nop                      
006106   0000     nop                      
006108   0000     nop                          data 0x0000, 0x0000, 0x0000, 0x0000 ; 6108
00610a   0000     nop                      
00610c   0000     nop                      
00610e   0000     nop                      
006110   0000     nop                          data 0x0000, 0x0000, 0x0000, 0x0000 ; 6110
006112   0000     nop                      
006114   0000     nop                      
006116   0000     nop                      
006118   0000     nop                          data 0x0000, 0x0000, 0x0000, 0x0000 ; 6118
00611a   0000     nop                      
00611c   0000     nop                      
00611e   0000     nop                      
006120   0000     nop                          data 0x0000, 0x0000, 0x0000, 0x0000 ; 6120
006122   0000     nop                      
006124   0000     nop                      
006126   0000     nop                      
006128   0000     nop                          data 0x0000, 0x0000, 0x0000, 0x0000 ; 6128
00612a   0000     nop                      
00612c   0000     nop                      
00612e   0000     nop                      
006130   0000     nop                          data 0x0000, 0x0000, 0x0000, 0x0000 ; 6130
006132   0000     nop                      
006134   0000     nop                      
006136   0000     nop                      
006138   0000     nop                          data 0x0000, 0x0000, 0x0000, 0x0000 ; 6138
00613a   0000     nop                      
00613c   0000     nop                      
00613e   0000     nop                      
006140   0000     nop                          data 0x0000, 0x0000, 0x0000, 0x0000 ; 6140
006142   0000     nop                      
006144   0000     nop                      
006146   0000     nop                      
006148   0000     nop                          data 0x0000, 0x0000, 0x0000, 0x0000 ; 6148
00614a   0000     nop                      
00614c   0000     nop                      
00614e   0000     nop                      
006150   0000     nop                          data 0x0000, 0x0000, 0x0000, 0x0000 ; 6150
006152   0000     nop                      
006154   0000     nop                      
006156   0000     nop                      
006158   0000     nop                          data 0x0000, 0x0000, 0x0000, 0x0000 ; 6158
00615a   0000     nop                      
00615c   0000     nop                      
00615e   0000     nop                      
006160   0000     nop                          data 0x0000, 0x0000, 0x0000, 0x0000 ; 6160
006162   0000     nop                      
006164   0000     nop                      
006166   0000     nop                      
006168   0000     nop                          data 0x0000, 0x0000, 0x0000, 0x0000 ; 6168
00616a   0000     nop                      
00616c   0000     nop                      
00616e   0000     nop                      
006170   0000     nop                          data 0x0000, 0x0000, 0x0000, 0x0000 ; 6170
006172   0000     nop                      
006174   0000     nop                      
006176   0000     nop                      
006178   0000     nop                          data 0x0000, 0x0000, 0x0000, 0x0000 ; 6178
00617a   0000     nop                      
00617c   0000     nop                      
00617e   0000     nop                      
006180   0000     nop                          data 0x0000, 0x0000, 0x0000, 0x0000 ; 6180
006182   0000     nop                      
006184   0000     nop                      
006186   0000     nop                      
006188   0000     nop                          data 0x0000, 0x0000, 0x0000, 0x0000 ; 6188
00618a   0000     nop                      
00618c   0000     nop                      
00618e   0000     nop                      
006190   0000     nop                          data 0x0000, 0x0000, 0x0000, 0x0000 ; 6190
006192   0000     nop                      
006194   0000     nop                      
006196   0000     nop                      
006198   0000     nop                          data 0x0000, 0x0000, 0x0000, 0x0000 ; 6198
00619a   0000     nop                      
00619c   0000     nop                      
00619e   0000     nop                      
0061a0   0000     nop                          data 0x0000, 0x0000, 0x0000, 0x0000 ; 61A0
0061a2   0000     nop                      
0061a4   0000     nop                      
0061a6   0000     nop                      
0061a8   0000     nop                          data 0x0000, 0x0000, 0x0000, 0x0000 ; 61A8
0061aa   0000     nop                      
0061ac   0000     nop                      
0061ae   0000     nop                      
0061b0   0000     nop                          data 0x0000, 0x0000, 0x0000, 0x0000 ; 61B0
0061b2   0000     nop                      
0061b4   0000     nop                      
0061b6   0000     nop                      
0061b8   0000     nop                          data 0x0000, 0x0000, 0x0000, 0x0000 ; 61B8
0061ba   0000     nop                      
0061bc   0000     nop                      
0061be   0000     nop                      
0061c0   0000     nop                          data 0x0000, 0x0000, 0x0000, 0x0000 ; 61C0
0061c2   0000     nop                      
0061c4   0000     nop                      
0061c6   0000     nop                      
0061c8   0000     nop                          data 0x0000, 0x0000, 0x0000, 0x0000 ; 61C8
0061ca   0000     nop                      
0061cc   0000     nop                      
0061ce   0000     nop                      
0061d0   0000     nop                          data 0x0000, 0x0000, 0x0000, 0x0000 ; 61D0
0061d2   0000     nop                      
0061d4   0000     nop                      
0061d6   0000     nop                      
0061d8   0000     nop                          data 0x0000, 0x0000, 0x0000, 0x0000 ; 61D8
0061da   0000     nop                      
0061dc   0000     nop                      
0061de   0000     nop                      
0061e0   0000     nop                          data 0x0000, 0x0000, 0x0000, 0x0000 ; 61E0
0061e2   0000     nop                      
0061e4   0000     nop                      
0061e6   0000     nop                      
0061e8   0000     nop                          data 0x0000, 0x0000, 0x0000, 0x0000 ; 61E8
0061ea   0000     nop                      
0061ec   0000     nop                      
0061ee   0000     nop                      
0061f0   0000     nop                          data 0x0000, 0x0000, 0x0000, 0x0000 ; 61F0
0061f2   0000     nop                      
0061f4   0000     nop                      
0061f6   0000     nop                      
0061f8   0000     nop                          data 0x0000, 0x0000, 0x0000, 0x0000 ; 61F8
0061fa   0000     nop                      
0061fc   0000     nop                      
0061fe   0000     nop                      
006200   0000     nop                          data 0x0000, 0x0000, 0x0000, 0x0000 ; 6200
006202   0000     nop                      
006204   0000     nop                      
006206   0000     nop                      
006208   0000     nop                          data 0x0000, 0x0000, 0x0000, 0x0000 ; 6208
00620a   0000     nop                      
00620c   0000     nop                      
00620e   0000     nop                      
006210   0000     nop                          data 0x0000, 0x0000, 0x0000, 0x0000 ; 6210
006212   0000     nop                      
006214   0000     nop                      
006216   0000     nop                      
006218   0000     nop                          data 0x0000, 0x0000, 0x0000, 0x0000 ; 6218
00621a   0000     nop                      
00621c   0000     nop                      
00621e   0000     nop                      
006220   0000     nop                          data 0x0000, 0x0000, 0x0000, 0x0000 ; 6220
006222   0000     nop                      
006224   0000     nop                      
006226   0000     nop                      
006228   0000     nop                          data 0x0000, 0x0000, 0x0000, 0x0000 ; 6228
00622a   0000     nop                      
00622c   0000     nop                      
00622e   0000     nop                      
006230   0000     nop                          data 0x0000, 0x0000, 0x0000, 0x0000 ; 6230
006232   0000     nop                      
006234   0000     nop                      
006236   0000     nop                      
006238   0000     nop                          data 0x0000, 0x0000, 0x0000, 0x0000 ; 6238
00623a   0000     nop                      
00623c   0000     nop                      
00623e   0000     nop                      
006240   0000     nop                          data 0x0000, 0x0000, 0x0000, 0x0000 ; 6240
006242   0000     nop                      
006244   0000     nop                      
006246   0000     nop                      
006248   0000     nop                          data 0x0000, 0x0000, 0x0000, 0x0000 ; 6248
00624a   0000     nop                      
00624c   0000     nop                      
00624e   0000     nop                      
006250   0000     nop                          data 0x0000, 0x0000, 0x0000, 0x0000 ; 6250
006252   0000     nop                      
006254   0000     nop                      
006256   0000     nop                      
006258   0000     nop                          data 0x0000, 0x0000, 0x0000, 0x0000 ; 6258
00625a   0000     nop                      
00625c   0000     nop                      
00625e   0000     nop                      
006260   0000     nop                          data 0x0000, 0x0000, 0x0000, 0x0000 ; 6260
006262   0000     nop                      
006264   0000     nop                      
006266   0000     nop                      
006268   0000     nop                          data 0x0000, 0x0000, 0x0000, 0x0000 ; 6268
00626a   0000     nop                      
00626c   0000     nop                      
00626e   0000     nop                      
006270   0000     nop                          data 0x0000, 0x0000, 0x0000, 0x0000 ; 6270
006272   0000     nop                      
006274   0000     nop                      
006276   0000     nop                      
006278   0000     nop                          data 0x0000, 0x0000, 0x0000, 0x0000 ; 6278
00627a   0000     nop                      
00627c   0000     nop                      
00627e   0000     nop                      
006280   0000     nop                          data 0x0000, 0x0000, 0x0000, 0x0000 ; 6280
006282   0000     nop                      
006284   0000     nop                      
006286   0000     nop                      
006288   0000     nop                          data 0x0000, 0x0000, 0x0000, 0x0000 ; 6288
00628a   0000     nop                      
00628c   0000     nop                      
00628e   0000     nop                      
006290   0000     nop                          data 0x0000, 0x0000, 0x0000, 0x0000 ; 6290
006292   0000     nop                      
006294   0000     nop                      
006296   0000     nop                      
006298   0000     nop                          data 0x0000, 0x0000, 0x0000, 0x0000 ; 6298
00629a   0000     nop                      
00629c   0000     nop                      
00629e   0000     nop                      
0062a0   0000     nop                          data 0x0000, 0x0000, 0x0000, 0x0000 ; 62A0
0062a2   0000     nop                      
0062a4   0000     nop                      
0062a6   0000     nop                      
0062a8   0000     nop                          data 0x0000, 0x0000, 0x0000, 0x0000 ; 62A8
0062aa   0000     nop                      
0062ac   0000     nop                      
0062ae   0000     nop                      
0062b0   0000     nop                          data 0x0000, 0x0000, 0x0000, 0x0000 ; 62B0
0062b2   0000     nop                      
0062b4   0000     nop                      
0062b6   0000     nop                      
0062b8   0000     nop                          data 0x0000, 0x0000, 0x0000, 0x0000 ; 62B8
0062ba   0000     nop                      
0062bc   0000     nop                      
0062be   0000     nop                      
0062c0   0000     nop                          data 0x0000, 0x0000, 0x0000, 0x0000 ; 62C0
0062c2   0000     nop                      
0062c4   0000     nop                      
0062c6   0000     nop                      
0062c8   0000     nop                          data 0x0000, 0x0000, 0x0000, 0x0000 ; 62C8
0062ca   0000     nop                      
0062cc   0000     nop                      
0062ce   0000     nop                      
0062d0   0000     nop                          data 0x0000, 0x0000, 0x0000, 0x0000 ; 62D0
0062d2   0000     nop                      
0062d4   0000     nop                      
0062d6   0000     nop                      
0062d8   0000     nop                          data 0x0000, 0x0000, 0x0000, 0x0000 ; 62D8
0062da   0000     nop                      
0062dc   0000     nop                      
0062de   0000     nop                      
0062e0   0000     nop                          data 0x0000, 0x0000, 0x0000, 0x0000 ; 62E0
0062e2   0000     nop                      
0062e4   0000     nop                      
0062e6   0000     nop                      
0062e8   0000     nop                          data 0x0000, 0x0000, 0x0000, 0x0000 ; 62E8
0062ea   0000     nop                      
0062ec   0000     nop                      
0062ee   0000     nop                      
0062f0   0000     nop                          data 0x0000, 0x0000, 0x0000, 0x0000 ; 62F0
0062f2   0000     nop                      
0062f4   0000     nop                      
0062f6   0000     nop                      
0062f8   0000     nop                          data 0x0000, 0x0000, 0x0000, 0x0000 ; 62F8
0062fa   0000     nop                      
0062fc   0000     nop                      
0062fe   0000     nop                      
006300   0000     nop                          data 0x0000, 0x0000, 0x0000, 0x0000 ; 6300
006302   0000     nop                      
006304   0000     nop                      
006306   0000     nop                      
006308   0000     nop                          data 0x0000, 0x0000, 0x0000, 0x0000 ; 6308
00630a   0000     nop                      
00630c   0000     nop                      
00630e   0000     nop                      
006310   0000     nop                          data 0x0000, 0x0000, 0x0000, 0x0000 ; 6310
006312   0000     nop                      
006314   0000     nop                      
006316   0000     nop                      
006318   0000     nop                          data 0x0000, 0x0000, 0x0000, 0x0000 ; 6318
00631a   0000     nop                      
00631c   0000     nop                      
00631e   0000     nop                      
006320   0000     nop                          data 0x0000, 0x0000, 0x0000, 0x0000 ; 6320
006322   0000     nop                      
006324   0000     nop                      
006326   0000     nop                      
006328   0000     nop                          data 0x0000, 0x0000, 0x0000, 0x0000 ; 6328
00632a   0000     nop                      
00632c   0000     nop                      
00632e   0000     nop                      
006330   0000     nop                          data 0x0000, 0x0000, 0x0000, 0x0000 ; 6330
006332   0000     nop                      
006334   0000     nop                      
006336   0000     nop                      
006338   0000     nop                          data 0x0000, 0x0000, 0x0000, 0x0000 ; 6338
00633a   0000     nop                      
00633c   0000     nop                      
00633e   0000     nop                      
006340   0000     nop                          data 0x0000, 0x0000, 0x0000, 0x0000 ; 6340
006342   0000     nop                      
006344   0000     nop                      
006346   0000     nop                      
006348   0000     nop                          data 0x0000, 0x0000, 0x0000, 0x0000 ; 6348
00634a   0000     nop                      
00634c   0000     nop                      
00634e   0000     nop                      
006350   0000     nop                          data 0x0000, 0x0000, 0x0000, 0x0000 ; 6350
006352   0000     nop                      
006354   0000     nop                      
006356   0000     nop                      
006358   0000     nop                          data 0x0000, 0x0000, 0x0000, 0x0000 ; 6358
00635a   0000     nop                      
00635c   0000     nop                      
00635e   0000     nop                      
006360   0000     nop                          data 0x0000, 0x0000, 0x0000, 0x0000 ; 6360
006362   0000     nop                      
006364   0000     nop                      
006366   0000     nop                      
006368   0000     nop                          data 0x0000, 0x0000, 0x0000, 0x0000 ; 6368
00636a   0000     nop                      
00636c   0000     nop                      
00636e   0000     nop                      
006370   0000     nop                          data 0x0000, 0x0000, 0x0000, 0x0000 ; 6370
006372   0000     nop                      
006374   0000     nop                      
006376   0000     nop                      
006378   0000     nop                          data 0x0000, 0x0000, 0x0000, 0x0000 ; 6378
00637a   0000     nop                      
00637c   0000     nop                      
00637e   0000     nop                      
006380   0000     nop                          data 0x0000, 0x0000, 0x0000, 0x0000 ; 6380
006382   0000     nop                      
006384   0000     nop                      
006386   0000     nop                      
006388   0000     nop                          data 0x0000, 0x0000, 0x0000, 0x0000 ; 6388
00638a   0000     nop                      
00638c   0000     nop                      
00638e   0000     nop                      
006390   0000     nop                          data 0x0000, 0x0000, 0x0000, 0x0000 ; 6390
006392   0000     nop                      
006394   0000     nop                      
006396   0000     nop                      
006398   0000     nop                          data 0x0000, 0x0000, 0x0000, 0x0000 ; 6398
00639a   0000     nop                      
00639c   0000     nop                      
00639e   0000     nop                      
0063a0   0000     nop                          data 0x0000, 0x0000, 0x0000, 0x0000 ; 63A0
0063a2   0000     nop                      
0063a4   0000     nop                      
0063a6   0000     nop                      
0063a8   0000     nop                          data 0x0000, 0x0000, 0x0000, 0x0000 ; 63A8
0063aa   0000     nop                      
0063ac   0000     nop                      
0063ae   0000     nop                      
0063b0   0000     nop                          data 0x0000, 0x0000, 0x0000, 0x0000 ; 63B0
0063b2   0000     nop                      
0063b4   0000     nop                      
0063b6   0000     nop                      
0063b8   0000     nop                          data 0x0000, 0x0000, 0x0000, 0x0000 ; 63B8
0063ba   0000     nop                      
0063bc   0000     nop                      
0063be   0000     nop                      
0063c0   0000     nop                          data 0x0000, 0x0000, 0x0000, 0x0000 ; 63C0
0063c2   0000     nop                      
0063c4   0000     nop                      
0063c6   0000     nop                      
0063c8   0000     nop                          data 0x0000, 0x0000, 0x0000, 0x0000 ; 63C8
0063ca   0000     nop                      
0063cc   0000     nop                      
0063ce   0000     nop                      
0063d0   0000     nop                          data 0x0000, 0x0000, 0x0000, 0x0000 ; 63D0
0063d2   0000     nop                      
0063d4   0000     nop                      
0063d6   0000     nop                      
0063d8   0000     nop                          data 0x0000, 0x0000, 0x0000, 0x0000 ; 63D8
0063da   0000     nop                      
0063dc   0000     nop                      
0063de   0000     nop                      
0063e0   0000     nop                          data 0x0000, 0x0000, 0x0000, 0x0000 ; 63E0
0063e2   0000     nop                      
0063e4   0000     nop                      
0063e6   0000     nop                      
0063e8   0000     nop                          data 0x0000, 0x0000, 0x0000, 0x0000 ; 63E8
0063ea   0000     nop                      
0063ec   0000     nop                      
0063ee   0000     nop                      
0063f0   0000     nop                          data 0x0000, 0x0000, 0x0000, 0x0000 ; 63F0
0063f2   0000     nop                      
0063f4   0000     nop                      
0063f6   0000     nop                      
0063f8   0000     nop                          data 0x0000, 0x0000, 0x0000, 0x0000 ; 63F8
0063fa   0000     nop                      
0063fc   0000     nop                      
0063fe   0000     nop                      
006400   0000     nop                          data 0x0000, 0x0000, 0x0000, 0x0000 ; 6400
006402   0000     nop                      
006404   0000     nop                      
006406   0000     nop                      
006408   0000     nop                          data 0x0000, 0x0000, 0x0000, 0x0000 ; 6408
00640a   0000     nop                      
00640c   0000     nop                      
00640e   0000     nop                      
006410   0000     nop                          data 0x0000, 0x0000, 0x0000, 0x0000 ; 6410
006412   0000     nop                      
006414   0000     nop                      
006416   0000     nop                      
006418   0000     nop                          data 0x0000, 0x0000, 0x0000, 0x0000 ; 6418
00641a   0000     nop                      
00641c   0000     nop                      
00641e   0000     nop                      
006420   0000     nop                          data 0x0000, 0x0000, 0x0000, 0x0000 ; 6420
006422   0000     nop                      
006424   0000     nop                      
006426   0000     nop                      
006428   0000     nop                          data 0x0000, 0x0000, 0x0000, 0x0000 ; 6428
00642a   0000     nop                      
00642c   0000     nop                      
00642e   0000     nop                      
006430   0000     nop                          data 0x0000, 0x0000, 0x0000, 0x0000 ; 6430
006432   0000     nop                      
006434   0000     nop                      
006436   0000     nop                      
006438   0000     nop                          data 0x0000, 0x0000, 0x0000, 0x0000 ; 6438
00643a   0000     nop                      
00643c   0000     nop                      
00643e   0000     nop                      
006440   0000     nop                          data 0x0000, 0x0000, 0x0000, 0x0000 ; 6440
006442   0000     nop                      
006444   0000     nop                      
006446   0000     nop                      
006448   0000     nop                          data 0x0000, 0x0000, 0x0000, 0x0000 ; 6448
00644a   0000     nop                      
00644c   0000     nop                      
00644e   0000     nop                      
006450   0000     nop                          data 0x0000, 0x0000, 0x0000, 0x0000 ; 6450
006452   0000     nop                      
006454   0000     nop                      
006456   0000     nop                      
006458   0000     nop                          data 0x0000, 0x0000, 0x0000, 0x0000 ; 6458
00645a   0000     nop                      
00645c   0000     nop                      
00645e   0000     nop                      
006460   0000     nop                          data 0x0000, 0x0000, 0x0000, 0x0000 ; 6460
006462   0000     nop                      
006464   0000     nop                      
006466   0000     nop                      
006468   0000     nop                          data 0x0000, 0x0000, 0x0000, 0x0000 ; 6468
00646a   0000     nop                      
00646c   0000     nop                      
00646e   0000     nop                      
006470   0000     nop                          data 0x0000, 0x0000, 0x0000, 0x0000 ; 6470
006472   0000     nop                      
006474   0000     nop                      
006476   0000     nop                      
006478   0000     nop                          data 0x0000, 0x0000, 0x0000, 0x0000 ; 6478
00647a   0000     nop                      
00647c   0000     nop                      
00647e   0000     nop                      
006480   0000     nop                          data 0x0000, 0x0000, 0x0000, 0x0000 ; 6480
006482   0000     nop                      
006484   0000     nop                      
006486   0000     nop                      
006488   0000     nop                          data 0x0000, 0x0000, 0x0000, 0x0000 ; 6488
00648a   0000     nop                      
00648c   0000     nop                      
00648e   0000     nop                      
006490   0000     nop                          data 0x0000, 0x0000, 0x0000, 0x0000 ; 6490
006492   0000     nop                      
006494   0000     nop                      
006496   0000     nop                      
006498   0000     nop                          data 0x0000, 0x0000, 0x0000, 0x0000 ; 6498
00649a   0000     nop                      
00649c   0000     nop                      
00649e   0000     nop                      
0064a0   0000     nop                          data 0x0000, 0x0000, 0x0000, 0x0000 ; 64A0
0064a2   0000     nop                      
0064a4   0000     nop                      
0064a6   0000     nop                      
0064a8   0000     nop                          data 0x0000, 0x0000, 0x0000, 0x0000 ; 64A8
0064aa   0000     nop                      
0064ac   0000     nop                      
0064ae   0000     nop                      
0064b0   0000     nop                          data 0x0000, 0x0000, 0x0000, 0x0000 ; 64B0
0064b2   0000     nop                      
0064b4   0000     nop                      
0064b6   0000     nop                      
0064b8   0000     nop                          data 0x0000, 0x0000, 0x0000, 0x0000 ; 64B8
0064ba   0000     nop                      
0064bc   0000     nop                      
0064be   0000     nop                      
0064c0   0000     nop                          data 0x0000, 0x0000, 0x0000, 0x0000 ; 64C0
0064c2   0000     nop                      
0064c4   0000     nop                      
0064c6   0000     nop                      
0064c8   0000     nop                          data 0x0000, 0x0000, 0x0000, 0x0000 ; 64C8
0064ca   0000     nop                      
0064cc   0000     nop                      
0064ce   0000     nop                      
0064d0   0000     nop                          data 0x0000, 0x0000, 0x0000, 0x0000 ; 64D0
0064d2   0000     nop                      
0064d4   0000     nop                      
0064d6   0000     nop                      
0064d8   0000     nop                          data 0x0000, 0x0000, 0x0000, 0x0000 ; 64D8
0064da   0000     nop                      
0064dc   0000     nop                      
0064de   0000     nop                      
0064e0   0000     nop                          data 0x0000, 0x0000, 0x0000, 0x0000 ; 64E0
0064e2   0000     nop                      
0064e4   0000     nop                      
0064e6   0000     nop                      
0064e8   0000     nop                          data 0x0000, 0x0000, 0x0000, 0x0000 ; 64E8
0064ea   0000     nop                      
0064ec   0000     nop                      
0064ee   0000     nop                      
0064f0   0000     nop                          data 0x0000, 0x0000, 0x0000, 0x0000 ; 64F0
0064f2   0000     nop                      
0064f4   0000     nop                      
0064f6   0000     nop                      
0064f8   0000     nop                          data 0x0000, 0x0000, 0x0000, 0x0000 ; 64F8
0064fa   0000     nop                      
0064fc   0000     nop                      
0064fe   0000     nop                      
006500   0000     nop                          data 0x0000, 0x0000, 0x0000, 0x0000 ; 6500
006502   0000     nop                      
006504   0000     nop                      
006506   0000     nop                      
006508   0000     nop                          data 0x0000, 0x0000, 0x0000, 0x0000 ; 6508
00650a   0000     nop                      
00650c   0000     nop                      
00650e   0000     nop                      
006510   0000     nop                          data 0x0000, 0x0000, 0x0000, 0x0000 ; 6510
006512   0000     nop                      
006514   0000     nop                      
006516   0000     nop                      
006518   0000     nop                          data 0x0000, 0x0000, 0x0000, 0x0000 ; 6518
00651a   0000     nop                      
00651c   0000     nop                      
00651e   0000     nop                      
006520   0000     nop                          data 0x0000, 0x0000, 0x0000, 0x0000 ; 6520
006522   0000     nop                      
006524   0000     nop                      
006526   0000     nop                      
006528   0000     nop                          data 0x0000, 0x0000, 0x0000, 0x0000 ; 6528
00652a   0000     nop                      
00652c   0000     nop                      
00652e   0000     nop                      
006530   0000     nop                          data 0x0000, 0x0000, 0x0000, 0x0000 ; 6530
006532   0000     nop                      
006534   0000     nop                      
006536   0000     nop                      
006538   0000     nop                          data 0x0000, 0x0000, 0x0000, 0x0000 ; 6538
00653a   0000     nop                      
00653c   0000     nop                      
00653e   0000     nop                      
006540   0000     nop                          data 0x0000, 0x0000, 0x0000, 0x0000 ; 6540
006542   0000     nop                      
006544   0000     nop                      
006546   0000     nop                      
006548   0000     nop                          data 0x0000, 0x0000, 0x0000, 0x0000 ; 6548
00654a   0000     nop                      
00654c   0000     nop                      
00654e   0000     nop                      
006550   0000     nop                          data 0x0000, 0x0000, 0x0000, 0x0000 ; 6550
006552   0000     nop                      
006554   0000     nop                      
006556   0000     nop                      
006558   0000     nop                          data 0x0000, 0x0000, 0x0000, 0x0000 ; 6558
00655a   0000     nop                      
00655c   0000     nop                      
00655e   0000     nop                      
006560   0000     nop                          data 0x0000, 0x0000, 0x0000, 0x0000 ; 6560
006562   0000     nop                      
006564   0000     nop                      
006566   0000     nop                      
006568   0000     nop                          data 0x0000, 0x0000, 0x0000, 0x0000 ; 6568
00656a   0000     nop                      
00656c   0000     nop                      
00656e   0000     nop                      
006570   0000     nop                          data 0x0000, 0x0000, 0x0000, 0x0000 ; 6570
006572   0000     nop                      
006574   0000     nop                      
006576   0000     nop                      
006578   0000     nop                          data 0x0000, 0x0000, 0x0000, 0x0000 ; 6578
00657a   0000     nop                      
00657c   0000     nop                      
00657e   0000     nop                      
006580   0000     nop                          data 0x0000, 0x0000, 0x0000, 0x0000 ; 6580
006582   0000     nop                      
006584   0000     nop                      
006586   0000     nop                      
006588   0000     nop                          data 0x0000, 0x0000, 0x0000, 0x0000 ; 6588
00658a   0000     nop                      
00658c   0000     nop                      
00658e   0000     nop                      
006590   0000     nop                          data 0x0000, 0x0000, 0x0000, 0x0000 ; 6590
006592   0000     nop                      
006594   0000     nop                      
006596   0000     nop                      
006598   0000     nop                          data 0x0000, 0x0000, 0x0000, 0x0000 ; 6598
00659a   0000     nop                      
00659c   0000     nop                      
00659e   0000     nop                      
0065a0   0000     nop                          data 0x0000, 0x0000, 0x0000, 0x0000 ; 65A0
0065a2   0000     nop                      
0065a4   0000     nop                      
0065a6   0000     nop                      
0065a8   0000     nop                          data 0x0000, 0x0000, 0x0000, 0x0000 ; 65A8
0065aa   0000     nop                      
0065ac   0000     nop                      
0065ae   0000     nop                      
0065b0   0000     nop                          data 0x0000, 0x0000, 0x0000, 0x0000 ; 65B0
0065b2   0000     nop                      
0065b4   0000     nop                      
0065b6   0000     nop                      
0065b8   0000     nop                          data 0x0000, 0x0000, 0x0000, 0x0000 ; 65B8
0065ba   0000     nop                      
0065bc   0000     nop                      
0065be   0000     nop                      
0065c0   0000     nop                          data 0x0000, 0x0000, 0x0000, 0x0000 ; 65C0
0065c2   0000     nop                      
0065c4   0000     nop                      
0065c6   0000     nop                      
0065c8   0000     nop                          data 0x0000, 0x0000, 0x0000, 0x0000 ; 65C8
0065ca   0000     nop                      
0065cc   0000     nop                      
0065ce   0000     nop                      
0065d0   0000     nop                          data 0x0000, 0x0000, 0x0000, 0x0000 ; 65D0
0065d2   0000     nop                      
0065d4   0000     nop                      
0065d6   0000     nop                      
0065d8   0000     nop                          data 0x0000, 0x0000, 0x0000, 0x0000 ; 65D8
0065da   0000     nop                      
0065dc   0000     nop                      
0065de   0000     nop                      
0065e0   0000     nop                          data 0x0000, 0x0000, 0x0000, 0x0000 ; 65E0
0065e2   0000     nop                      
0065e4   0000     nop                      
0065e6   0000     nop                      
0065e8   0000     nop                          data 0x0000, 0x0000, 0x0000, 0x0000 ; 65E8
0065ea   0000     nop                      
0065ec   0000     nop                      
0065ee   0000     nop                      
0065f0   0000     nop                          data 0x0000, 0x0000, 0x0000, 0x0000 ; 65F0
0065f2   0000     nop                      
0065f4   0000     nop                      
0065f6   0000     nop                      
0065f8   0000     nop                          data 0x0000, 0x0000, 0x0000, 0x0000 ; 65F8
0065fa   0000     nop                      
0065fc   0000     nop                      
0065fe   0000     nop                      
006600   0000     nop                          data 0x0000, 0x0000, 0x0000, 0x0000 ; 6600
006602   0000     nop                      
006604   0000     nop                      
006606   0000     nop                      
006608   0000     nop                          data 0x0000, 0x0000, 0x0000, 0x0000 ; 6608
00660a   0000     nop                      
00660c   0000     nop                      
00660e   0000     nop                      
006610   0000     nop                          data 0x0000, 0x0000, 0x0000, 0x0000 ; 6610
006612   0000     nop                      
006614   0000     nop                      
006616   0000     nop                      
006618   0000     nop                          data 0x0000, 0x0000, 0x0000, 0x0000 ; 6618
00661a   0000     nop                      
00661c   0000     nop                      
00661e   0000     nop                      
006620   0000     nop                          data 0x0000, 0x0000, 0x0000, 0x0000 ; 6620
006622   0000     nop                      
006624   0000     nop                      
006626   0000     nop                      
006628   0000     nop                          data 0x0000, 0x0000, 0x0000, 0x0000 ; 6628
00662a   0000     nop                      
00662c   0000     nop                      
00662e   0000     nop                      
006630   0000     nop                          data 0x0000, 0x0000, 0x0000, 0x0000 ; 6630
006632   0000     nop                      
006634   0000     nop                      
006636   0000     nop                      
006638   0000     nop                          data 0x0000, 0x0000, 0x0000, 0x0000 ; 6638
00663a   0000     nop                      
00663c   0000     nop                      
00663e   0000     nop                      
006640   0000     nop                          data 0x0000, 0x0000, 0x0000, 0x0000 ; 6640
006642   0000     nop                      
006644   0000     nop                      
006646   0000     nop                      
006648   0000     nop                          data 0x0000, 0x0000, 0x0000, 0x0000 ; 6648
00664a   0000     nop                      
00664c   0000     nop                      
00664e   0000     nop                      
006650   0000     nop                          data 0x0000, 0x0000, 0x0000, 0x0000 ; 6650
006652   0000     nop                      
006654   0000     nop                      
006656   0000     nop                      
006658   0000     nop                          data 0x0000, 0x0000, 0x0000, 0x0000 ; 6658
00665a   0000     nop                      
00665c   0000     nop                      
00665e   0000     nop                      
006660   0000     nop                          data 0x0000, 0x0000, 0x0000, 0x0000 ; 6660
006662   0000     nop                      
006664   0000     nop                      
006666   0000     nop                      
006668   0000     nop                          data 0x0000, 0x0000, 0x0000, 0x0000 ; 6668
00666a   0000     nop                      
00666c   0000     nop                      
00666e   0000     nop                      
006670   0000     nop                          data 0x0000, 0x0000, 0x0000, 0x0000 ; 6670
006672   0000     nop                      
006674   0000     nop                      
006676   0000     nop                      
006678   0000     nop                          data 0x0000, 0x0000, 0x0000, 0x0000 ; 6678
00667a   0000     nop                      
00667c   0000     nop                      
00667e   0000     nop                      
006680   0000     nop                          data 0x0000, 0x0000, 0x0000, 0x0000 ; 6680
006682   0000     nop                      
006684   0000     nop                      
006686   0000     nop                      
006688   0000     nop                          data 0x0000, 0x0000, 0x0000, 0x0000 ; 6688
00668a   0000     nop                      
00668c   0000     nop                      
00668e   0000     nop                      
006690   0000     nop                          data 0x0000, 0x0000, 0x0000, 0x0000 ; 6690
006692   0000     nop                      
006694   0000     nop                      
006696   0000     nop                      
006698   0000     nop                          data 0x0000, 0x0000, 0x0000, 0x0000 ; 6698
00669a   0000     nop                      
00669c   0000     nop                      
00669e   0000     nop                      
0066a0   0000     nop                          data 0x0000, 0x0000, 0x0000, 0x0000 ; 66A0
0066a2   0000     nop                      
0066a4   0000     nop                      
0066a6   0000     nop                      
0066a8   0000     nop                          data 0x0000, 0x0000, 0x0000, 0x0000 ; 66A8
0066aa   0000     nop                      
0066ac   0000     nop                      
0066ae   0000     nop                      
0066b0   0000     nop                          data 0x0000, 0x0000, 0x0000, 0x0000 ; 66B0
0066b2   0000     nop                      
0066b4   0000     nop                      
0066b6   0000     nop                      
0066b8   0000     nop                          data 0x0000, 0x0000, 0x0000, 0x0000 ; 66B8
0066ba   0000     nop                      
0066bc   0000     nop                      
0066be   0000     nop                      
0066c0   0000     nop                          data 0x0000, 0x0000, 0x0000, 0x0000 ; 66C0
0066c2   0000     nop                      
0066c4   0000     nop                      
0066c6   0000     nop                      
0066c8   0000     nop                          data 0x0000, 0x0000, 0x0000, 0x0000 ; 66C8
0066ca   0000     nop                      
0066cc   0000     nop                      
0066ce   0000     nop                      
0066d0   0000     nop                          data 0x0000, 0x0000, 0x0000, 0x0000 ; 66D0
0066d2   0000     nop                      
0066d4   0000     nop                      
0066d6   0000     nop                      
0066d8   0000     nop                          data 0x0000, 0x0000, 0x0000, 0x0000 ; 66D8
0066da   0000     nop                      
0066dc   0000     nop                      
0066de   0000     nop                      
0066e0   0000     nop                          data 0x0000, 0x0000, 0x0000, 0x0000 ; 66E0
0066e2   0000     nop                      
0066e4   0000     nop                      
0066e6   0000     nop                      
0066e8   0000     nop                          data 0x0000, 0x0000, 0x0000, 0x0000 ; 66E8
0066ea   0000     nop                      
0066ec   0000     nop                      
0066ee   0000     nop                      
0066f0   0000     nop                          data 0x0000, 0x0000, 0x0000, 0x0000 ; 66F0
0066f2   0000     nop                      
0066f4   0000     nop                      
0066f6   0000     nop                      
0066f8   0000     nop                          data 0x0000, 0x0000, 0x0000, 0x0000 ; 66F8
0066fa   0000     nop                      
0066fc   0000     nop                      
0066fe   0000     nop                      
006700   0000     nop                          data 0x0000, 0x0000, 0x0000, 0x0000 ; 6700
006702   0000     nop                      
006704   0000     nop                      
006706   0000     nop                      
006708   0000     nop                          data 0x0000, 0x0000, 0x0000, 0x0000 ; 6708
00670a   0000     nop                      
00670c   0000     nop                      
00670e   0000     nop                      
006710   0000     nop                          data 0x0000, 0x0000, 0x0000, 0x0000 ; 6710
006712   0000     nop                      
006714   0000     nop                      
006716   0000     nop                      
006718   0000     nop                          data 0x0000, 0x0000, 0x0000, 0x0000 ; 6718
00671a   0000     nop                      
00671c   0000     nop                      
00671e   0000     nop                      
006720   0000     nop                          data 0x0000, 0x0000, 0x0000, 0x0000 ; 6720
006722   0000     nop                      
006724   0000     nop                      
006726   0000     nop                      
006728   0000     nop                          data 0x0000, 0x0000, 0x0000, 0x0000 ; 6728
00672a   0000     nop                      
00672c   0000     nop                      
00672e   0000     nop                      
006730   0000     nop                          data 0x0000, 0x0000, 0x0000, 0x0000 ; 6730
006732   0000     nop                      
006734   0000     nop                      
006736   0000     nop                      
006738   0000     nop                          data 0x0000, 0x0000, 0x0000, 0x0000 ; 6738
00673a   0000     nop                      
00673c   0000     nop                      
00673e   0000     nop                      
006740   0000     nop                          data 0x0000, 0x0000, 0x0000, 0x0000 ; 6740
006742   0000     nop                      
006744   0000     nop                      
006746   0000     nop                      
006748   0000     nop                          data 0x0000, 0x0000, 0x0000, 0x0000 ; 6748
00674a   0000     nop                      
00674c   0000     nop                      
00674e   0000     nop                      
006750   0000     nop                          data 0x0000, 0x0000, 0x0000, 0x0000 ; 6750
006752   0000     nop                      
006754   0000     nop                      
006756   0000     nop                      
006758   0000     nop                          data 0x0000, 0x0000, 0x0000, 0x0000 ; 6758
00675a   0000     nop                      
00675c   0000     nop                      
00675e   0000     nop                      
006760   0000     nop                          data 0x0000, 0x0000, 0x0000, 0x0000 ; 6760
006762   0000     nop                      
006764   0000     nop                      
006766   0000     nop                      
006768   0000     nop                          data 0x0000, 0x0000, 0x0000, 0x0000 ; 6768
00676a   0000     nop                      
00676c   0000     nop                      
00676e   0000     nop                      
006770   0000     nop                          data 0x0000, 0x0000, 0x0000, 0x0000 ; 6770
006772   0000     nop                      
006774   0000     nop                      
006776   0000     nop                      
006778   0000     nop                          data 0x0000, 0x0000, 0x0000, 0x0000 ; 6778
00677a   0000     nop                      
00677c   0000     nop                      
00677e   0000     nop                      
006780   0000     nop                          data 0x0000, 0x0000, 0x0000, 0x0000 ; 6780
006782   0000     nop                      
006784   0000     nop                      
006786   0000     nop                      
006788   0000     nop                          data 0x0000, 0x0000, 0x0000, 0x0000 ; 6788
00678a   0000     nop                      
00678c   0000     nop                      
00678e   0000     nop                      
006790   0000     nop                          data 0x0000, 0x0000, 0x0000, 0x0000 ; 6790
006792   0000     nop                      
006794   0000     nop                      
006796   0000     nop                      
006798   0000     nop                          data 0x0000, 0x0000, 0x0000, 0x0000 ; 6798
00679a   0000     nop                      
00679c   0000     nop                      
00679e   0000     nop                      
0067a0   0000     nop                          data 0x0000, 0x0000, 0x0000, 0x0000 ; 67A0
0067a2   0000     nop                      
0067a4   0000     nop                      
0067a6   0000     nop                      
0067a8   0000     nop                          data 0x0000, 0x0000, 0x0000, 0x0000 ; 67A8
0067aa   0000     nop                      
0067ac   0000     nop                      
0067ae   0000     nop                      
0067b0   0000     nop                          data 0x0000, 0x0000, 0x0000, 0x0000 ; 67B0
0067b2   0000     nop                      
0067b4   0000     nop                      
0067b6   0000     nop                      
0067b8   0000     nop                          data 0x0000, 0x0000, 0x0000, 0x0000 ; 67B8
0067ba   0000     nop                      
0067bc   0000     nop                      
0067be   0000     nop                      
0067c0   0000     nop                          data 0x0000, 0x0000, 0x0000, 0x0000 ; 67C0
0067c2   0000     nop                      
0067c4   0000     nop                      
0067c6   0000     nop                      
0067c8   0000     nop                          data 0x0000, 0x0000, 0x0000, 0x0000 ; 67C8
0067ca   0000     nop                      
0067cc   0000     nop                      
0067ce   0000     nop                      
0067d0   0000     nop                          data 0x0000, 0x0000, 0x0000, 0x0000 ; 67D0
0067d2   0000     nop                      
0067d4   0000     nop                      
0067d6   0000     nop                      
0067d8   0000     nop                          data 0x0000, 0x0000, 0x0000, 0x0000 ; 67D8
0067da   0000     nop                      
0067dc   0000     nop                      
0067de   0000     nop                      
0067e0   0000     nop                          data 0x0000, 0x0000, 0x0000, 0x0000 ; 67E0
0067e2   0000     nop                      
0067e4   0000     nop                      
0067e6   0000     nop                      
0067e8   0000     nop                          data 0x0000, 0x0000, 0x0000, 0x0000 ; 67E8
0067ea   0000     nop                      
0067ec   0000     nop                      
0067ee   0000     nop                      
0067f0   0000     nop                          data 0x0000, 0x0000, 0x0000, 0x0000 ; 67F0
0067f2   0000     nop                      
0067f4   0000     nop                      
0067f6   0000     nop                      
0067f8   0000     nop                          data 0x0000, 0x0000, 0x0000, 0x0000 ; 67F8
0067fa   0000     nop                      
0067fc   0000     nop                      
0067fe   0000     nop                      
006800   0000     nop                          data 0x0000, 0x0000, 0x0000, 0x0000 ; 6800
006802   0000     nop                      
006804   0000     nop                      
006806   0000     nop                      
006808   0000     nop                          data 0x0000, 0x0000, 0x0000, 0x0000 ; 6808
00680a   0000     nop                      
00680c   0000     nop                      
00680e   0000     nop                      
006810   0000     nop                          data 0x0000, 0x0000, 0x0000, 0x0000 ; 6810
006812   0000     nop                      
006814   0000     nop                      
006816   0000     nop                      
006818   0000     nop                          data 0x0000, 0x0000, 0x0000, 0x0000 ; 6818
00681a   0000     nop                      
00681c   0000     nop                      
00681e   0000     nop                      
006820   0000     nop                          data 0x0000, 0x0000, 0x0000, 0x0000 ; 6820
006822   0000     nop                      
006824   0000     nop                      
006826   0000     nop                      
006828   0000     nop                          data 0x0000, 0x0000, 0x0000, 0x0000 ; 6828
00682a   0000     nop                      
00682c   0000     nop                      
00682e   0000     nop                      
006830   0000     nop                          data 0x0000, 0x0000, 0x0000, 0x0000 ; 6830
006832   0000     nop                      
006834   0000     nop                      
006836   0000     nop                      
006838   0000     nop                          data 0x0000, 0x0000, 0x0000, 0x0000 ; 6838
00683a   0000     nop                      
00683c   0000     nop                      
00683e   0000     nop                      
006840   0000     nop                          data 0x0000, 0x0000, 0x0000, 0x0000 ; 6840
006842   0000     nop                      
006844   0000     nop                      
006846   0000     nop                      
006848   0000     nop                          data 0x0000, 0x0000, 0x0000, 0x0000 ; 6848
00684a   0000     nop                      
00684c   0000     nop                      
00684e   0000     nop                      
006850   0000     nop                          data 0x0000, 0x0000, 0x0000, 0x0000 ; 6850
006852   0000     nop                      
006854   0000     nop                      
006856   0000     nop                      
006858   0000     nop                          data 0x0000, 0x0000, 0x0000, 0x0000 ; 6858
00685a   0000     nop                      
00685c   0000     nop                      
00685e   0000     nop                      
006860   0000     nop                          data 0x0000, 0x0000, 0x0000, 0x0000 ; 6860
006862   0000     nop                      
006864   0000     nop                      
006866   0000     nop                      
006868   0000     nop                          data 0x0000, 0x0000, 0x0000, 0x0000 ; 6868
00686a   0000     nop                      
00686c   0000     nop                      
00686e   0000     nop                      
006870   0000     nop                          data 0x0000, 0x0000, 0x0000, 0x0000 ; 6870
006872   0000     nop                      
006874   0000     nop                      
006876   0000     nop                      
006878   0000     nop                          data 0x0000, 0x0000, 0x0000, 0x0000 ; 6878
00687a   0000     nop                      
00687c   0000     nop                      
00687e   0000     nop                      
006880   0000     nop                          data 0x0000, 0x0000, 0x0000, 0x0000 ; 6880
006882   0000     nop                      
006884   0000     nop                      
006886   0000     nop                      
006888   0000     nop                          data 0x0000, 0x0000, 0x0000, 0x0000 ; 6888
00688a   0000     nop                      
00688c   0000     nop                      
00688e   0000     nop                      
006890   0000     nop                          data 0x0000, 0x0000, 0x0000, 0x0000 ; 6890
006892   0000     nop                      
006894   0000     nop                      
006896   0000     nop                      
006898   0000     nop                          data 0x0000, 0x0000, 0x0000, 0x0000 ; 6898
00689a   0000     nop                      
00689c   0000     nop                      
00689e   0000     nop                      
0068a0   0000     nop                          data 0x0000, 0x0000, 0x0000, 0x0000 ; 68A0
0068a2   0000     nop                      
0068a4   0000     nop                      
0068a6   0000     nop                      
0068a8   0000     nop                          data 0x0000, 0x0000, 0x0000, 0x0000 ; 68A8
0068aa   0000     nop                      
0068ac   0000     nop                      
0068ae   0000     nop                      
0068b0   0000     nop                          data 0x0000, 0x0000, 0x0000, 0x0000 ; 68B0
0068b2   0000     nop                      
0068b4   0000     nop                      
0068b6   0000     nop                      
0068b8   0000     nop                          data 0x0000, 0x0000, 0x0000, 0x0000 ; 68B8
0068ba   0000     nop                      
0068bc   0000     nop                      
0068be   0000     nop                      
0068c0   0000     nop                          data 0x0000, 0x0000, 0x0000, 0x0000 ; 68C0
0068c2   0000     nop                      
0068c4   0000     nop                      
0068c6   0000     nop                      
0068c8   0000     nop                          data 0x0000, 0x0000, 0x0000, 0x0000 ; 68C8
0068ca   0000     nop                      
0068cc   0000     nop                      
0068ce   0000     nop                      
0068d0   0000     nop                          data 0x0000, 0x0000, 0x0000, 0x0000 ; 68D0
0068d2   0000     nop                      
0068d4   0000     nop                      
0068d6   0000     nop                      
0068d8   0000     nop                          data 0x0000, 0x0000, 0x0000, 0x0000 ; 68D8
0068da   0000     nop                      
0068dc   0000     nop                      
0068de   0000     nop                      
0068e0   0000     nop                          data 0x0000, 0x0000, 0x0000, 0x0000 ; 68E0
0068e2   0000     nop                      
0068e4   0000     nop                      
0068e6   0000     nop                      
0068e8   0000     nop                          data 0x0000, 0x0000, 0x0000, 0x0000 ; 68E8
0068ea   0000     nop                      
0068ec   0000     nop                      
0068ee   0000     nop                      
0068f0   0000     nop                          data 0x0000, 0x0000, 0x0000, 0x0000 ; 68F0
0068f2   0000     nop                      
0068f4   0000     nop                      
0068f6   0000     nop                      
0068f8   0000     nop                          data 0x0000, 0x0000, 0x0000, 0x0000 ; 68F8
0068fa   0000     nop                      
0068fc   0000     nop                      
0068fe   0000     nop                      
006900   0000     nop                          data 0x0000, 0x0000, 0x0000, 0x0000 ; 6900
006902   0000     nop                      
006904   0000     nop                      
006906   0000     nop                      
006908   0000     nop                          data 0x0000, 0x0000, 0x0000, 0x0000 ; 6908
00690a   0000     nop                      
00690c   0000     nop                      
00690e   0000     nop                      
006910   0000     nop                          data 0x0000, 0x0000, 0x0000, 0x0000 ; 6910
006912   0000     nop                      
006914   0000     nop                      
006916   0000     nop                      
006918   0000     nop                          data 0x0000, 0x0000, 0x0000, 0x0000 ; 6918
00691a   0000     nop                      
00691c   0000     nop                      
00691e   0000     nop                      
006920   0000     nop                          data 0x0000, 0x0000, 0x0000, 0x0000 ; 6920
006922   0000     nop                      
006924   0000     nop                      
006926   0000     nop                      
006928   0000     nop                          data 0x0000, 0x0000, 0x0000, 0x0000 ; 6928
00692a   0000     nop                      
00692c   0000     nop                      
00692e   0000     nop                      
006930   0000     nop                          data 0x0000, 0x0000, 0x0000, 0x0000 ; 6930
006932   0000     nop                      
006934   0000     nop                      
006936   0000     nop                      
006938   0000     nop                          data 0x0000, 0x0000, 0x0000, 0x0000 ; 6938
00693a   0000     nop                      
00693c   0000     nop                      
00693e   0000     nop                      
006940   0000     nop                          data 0x0000, 0x0000, 0x0000, 0x0000 ; 6940
006942   0000     nop                      
006944   0000     nop                      
006946   0000     nop                      
006948   0000     nop                          data 0x0000, 0x0000, 0x0000, 0x0000 ; 6948
00694a   0000     nop                      
00694c   0000     nop                      
00694e   0000     nop                      
006950   0000     nop                          data 0x0000, 0x0000, 0x0000, 0x0000 ; 6950
006952   0000     nop                      
006954   0000     nop                      
006956   0000     nop                      
006958   0000     nop                          data 0x0000, 0x0000, 0x0000, 0x0000 ; 6958
00695a   0000     nop                      
00695c   0000     nop                      
00695e   0000     nop                      
006960   0000     nop                          data 0x0000, 0x0000, 0x0000, 0x0000 ; 6960
006962   0000     nop                      
006964   0000     nop                      
006966   0000     nop                      
006968   0000     nop                          data 0x0000, 0x0000, 0x0000, 0x0000 ; 6968
00696a   0000     nop                      
00696c   0000     nop                      
00696e   0000     nop                      
006970   0000     nop                          data 0x0000, 0x0000, 0x0000, 0x0000 ; 6970
006972   0000     nop                      
006974   0000     nop                      
006976   0000     nop                      
006978   0000     nop                          data 0x0000, 0x0000, 0x0000, 0x0000 ; 6978
00697a   0000     nop                      
00697c   0000     nop                      
00697e   0000     nop                      
006980   0000     nop                          data 0x0000, 0x0000, 0x0000, 0x0000 ; 6980
006982   0000     nop                      
006984   0000     nop                      
006986   0000     nop                      
006988   0000     nop                          data 0x0000, 0x0000, 0x0000, 0x0000 ; 6988
00698a   0000     nop                      
00698c   0000     nop                      
00698e   0000     nop                      
006990   0000     nop                          data 0x0000, 0x0000, 0x0000, 0x0000 ; 6990
006992   0000     nop                      
006994   0000     nop                      
006996   0000     nop                      
006998   0000     nop                          data 0x0000, 0x0000, 0x0000, 0x0000 ; 6998
00699a   0000     nop                      
00699c   0000     nop                      
00699e   0000     nop                      
0069a0   0000     nop                          data 0x0000, 0x0000, 0x0000, 0x0000 ; 69A0
0069a2   0000     nop                      
0069a4   0000     nop                      
0069a6   0000     nop                      
0069a8   0000     nop                          data 0x0000, 0x0000, 0x0000, 0x0000 ; 69A8
0069aa   0000     nop                      
0069ac   0000     nop                      
0069ae   0000     nop                      
0069b0   0000     nop                          data 0x0000, 0x0000, 0x0000, 0x0000 ; 69B0
0069b2   0000     nop                      
0069b4   0000     nop                      
0069b6   0000     nop                      
0069b8   0000     nop                          data 0x0000, 0x0000, 0x0000, 0x0000 ; 69B8
0069ba   0000     nop                      
0069bc   0000     nop                      
0069be   0000     nop                      
0069c0   0000     nop                          data 0x0000, 0x0000, 0x0000, 0x0000 ; 69C0
0069c2   0000     nop                      
0069c4   0000     nop                      
0069c6   0000     nop                      
0069c8   0000     nop                          data 0x0000, 0x0000, 0x0000, 0x0000 ; 69C8
0069ca   0000     nop                      
0069cc   0000     nop                      
0069ce   0000     nop                      
0069d0   0000     nop                          data 0x0000, 0x0000, 0x0000, 0x0000 ; 69D0
0069d2   0000     nop                      
0069d4   0000     nop                      
0069d6   0000     nop                      
0069d8   0000     nop                          data 0x0000, 0x0000, 0x0000, 0x0000 ; 69D8
0069da   0000     nop                      
0069dc   0000     nop                      
0069de   0000     nop                      
0069e0   0000     nop                          data 0x0000, 0x0000, 0x0000, 0x0000 ; 69E0
0069e2   0000     nop                      
0069e4   0000     nop                      
0069e6   0000     nop                      
0069e8   0000     nop                          data 0x0000, 0x0000, 0x0000, 0x0000 ; 69E8
0069ea   0000     nop                      
0069ec   0000     nop                      
0069ee   0000     nop                      
0069f0   0000     nop                          data 0x0000, 0x0000, 0x0000, 0x0000 ; 69F0
0069f2   0000     nop                      
0069f4   0000     nop                      
0069f6   0000     nop                      
0069f8   0000     nop                          data 0x0000, 0x0000, 0x0000, 0x0000 ; 69F8
0069fa   0000     nop                      
0069fc   0000     nop                      
0069fe   0000     nop                      
006a00   0000     nop                          data 0x0000, 0x0000, 0x0000, 0x0000 ; 6A00
006a02   0000     nop                      
006a04   0000     nop                      
006a06   0000     nop                      
006a08   0000     nop                          data 0x0000, 0x0000, 0x0000, 0x0000 ; 6A08
006a0a   0000     nop                      
006a0c   0000     nop                      
006a0e   0000     nop                      
006a10   0000     nop                          data 0x0000, 0x0000, 0x0000, 0x0000 ; 6A10
006a12   0000     nop                      
006a14   0000     nop                      
006a16   0000     nop                      
006a18   0000     nop                          data 0x0000, 0x0000, 0x0000, 0x0000 ; 6A18
006a1a   0000     nop                      
006a1c   0000     nop                      
006a1e   0000     nop                      
006a20   0000     nop                          data 0x0000, 0x0000, 0x0000, 0x0000 ; 6A20
006a22   0000     nop                      
006a24   0000     nop                      
006a26   0000     nop                      
006a28   0000     nop                          data 0x0000, 0x0000, 0x0000, 0x0000 ; 6A28
006a2a   0000     nop                      
006a2c   0000     nop                      
006a2e   0000     nop                      
006a30   0000     nop                          data 0x0000, 0x0000, 0x0000, 0x0000 ; 6A30
006a32   0000     nop                      
006a34   0000     nop                      
006a36   0000     nop                      
006a38   0000     nop                          data 0x0000, 0x0000, 0x0000, 0x0000 ; 6A38
006a3a   0000     nop                      
006a3c   0000     nop                      
006a3e   0000     nop                      
006a40   0000     nop                          data 0x0000, 0x0000, 0x0000, 0x0000 ; 6A40
006a42   0000     nop                      
006a44   0000     nop                      
006a46   0000     nop                      
006a48   0000     nop                          data 0x0000, 0x0000, 0x0000, 0x0000 ; 6A48
006a4a   0000     nop                      
006a4c   0000     nop                      
006a4e   0000     nop                      
006a50   0000     nop                          data 0x0000, 0x0000, 0x0000, 0x0000 ; 6A50
006a52   0000     nop                      
006a54   0000     nop                      
006a56   0000     nop                      
006a58   0000     nop                          data 0x0000, 0x0000, 0x0000, 0x0000 ; 6A58
006a5a   0000     nop                      
006a5c   0000     nop                      
006a5e   0000     nop                      
006a60   0000     nop                          data 0x0000, 0x0000, 0x0000, 0x0000 ; 6A60
006a62   0000     nop                      
006a64   0000     nop                      
006a66   0000     nop                      
006a68   0000     nop                          data 0x0000, 0x0000, 0x0000, 0x0000 ; 6A68
006a6a   0000     nop                      
006a6c   0000     nop                      
006a6e   0000     nop                      
006a70   0000     nop                          data 0x0000, 0x0000, 0x0000, 0x0000 ; 6A70
006a72   0000     nop                      
006a74   0000     nop                      
006a76   0000     nop                      
006a78   0000     nop                          data 0x0000, 0x0000, 0x0000, 0x0000 ; 6A78
006a7a   0000     nop                      
006a7c   0000     nop                      
006a7e   0000     nop                      
006a80   0000     nop                          data 0x0000, 0x0000, 0x0000, 0x0000 ; 6A80
006a82   0000     nop                      
006a84   0000     nop                      
006a86   0000     nop                      
006a88   0000     nop                          data 0x0000, 0x0000, 0x0000, 0x0000 ; 6A88
006a8a   0000     nop                      
006a8c   0000     nop                      
006a8e   0000     nop                      
006a90   0000     nop                          data 0x0000, 0x0000, 0x0000, 0x0000 ; 6A90
006a92   0000     nop                      
006a94   0000     nop                      
006a96   0000     nop                      
006a98   0000     nop                          data 0x0000, 0x0000, 0x0000, 0x0000 ; 6A98
006a9a   0000     nop                      
006a9c   0000     nop                      
006a9e   0000     nop                      
006aa0   0000     nop                          data 0x0000, 0x0000, 0x0000, 0x0000 ; 6AA0
006aa2   0000     nop                      
006aa4   0000     nop                      
006aa6   0000     nop                      
006aa8   0000     nop                          data 0x0000, 0x0000, 0x0000, 0x0000 ; 6AA8
006aaa   0000     nop                      
006aac   0000     nop                      
006aae   0000     nop                      
006ab0   0000     nop                          data 0x0000, 0x0000, 0x0000, 0x0000 ; 6AB0
006ab2   0000     nop                      
006ab4   0000     nop                      
006ab6   0000     nop                      
006ab8   0000     nop                          data 0x0000, 0x0000, 0x0000, 0x0000 ; 6AB8
006aba   0000     nop                      
006abc   0000     nop                      
006abe   0000     nop                      
006ac0   0000     nop                          data 0x0000, 0x0000, 0x0000, 0x0000 ; 6AC0
006ac2   0000     nop                      
006ac4   0000     nop                      
006ac6   0000     nop                      
006ac8   0000     nop                          data 0x0000, 0x0000, 0x0000, 0x0000 ; 6AC8
006aca   0000     nop                      
006acc   0000     nop                      
006ace   0000     nop                      
006ad0   0000     nop                          data 0x0000, 0x0000, 0x0000, 0x0000 ; 6AD0
006ad2   0000     nop                      
006ad4   0000     nop                      
006ad6   0000     nop                      
006ad8   0000     nop                          data 0x0000, 0x0000, 0x0000, 0x0000 ; 6AD8
006ada   0000     nop                      
006adc   0000     nop                      
006ade   0000     nop                      
006ae0   0000     nop                          data 0x0000, 0x0000, 0x0000, 0x0000 ; 6AE0
006ae2   0000     nop                      
006ae4   0000     nop                      
006ae6   0000     nop                      
006ae8   0000     nop                          data 0x0000, 0x0000, 0x0000, 0x0000 ; 6AE8
006aea   0000     nop                      
006aec   0000     nop                      
006aee   0000     nop                      
006af0   0000     nop                          data 0x0000, 0x0000, 0x0000, 0x0000 ; 6AF0
006af2   0000     nop                      
006af4   0000     nop                      
006af6   0000     nop                      
006af8   0000     nop                          data 0x0000, 0x0000, 0x0000, 0x0000 ; 6AF8
006afa   0000     nop                      
006afc   0000     nop                      
006afe   0000     nop                      
006b00   0000     nop                          data 0x0000, 0x0000, 0x0000, 0x0000 ; 6B00
006b02   0000     nop                      
006b04   0000     nop                      
006b06   0000     nop                      
006b08   0000     nop                          data 0x0000, 0x0000, 0x0000, 0x0000 ; 6B08
006b0a   0000     nop                      
006b0c   0000     nop                      
006b0e   0000     nop                      
006b10   0000     nop                          data 0x0000, 0x0000, 0x0000, 0x0000 ; 6B10
006b12   0000     nop                      
006b14   0000     nop                      
006b16   0000     nop                      
006b18   0000     nop                          data 0x0000, 0x0000, 0x0000, 0x0000 ; 6B18
006b1a   0000     nop                      
006b1c   0000     nop                      
006b1e   0000     nop                      
006b20   0000     nop                          data 0x0000, 0x0000, 0x0000, 0x0000 ; 6B20
006b22   0000     nop                      
006b24   0000     nop                      
006b26   0000     nop                      
006b28   0000     nop                          data 0x0000, 0x0000, 0x0000, 0x0000 ; 6B28
006b2a   0000     nop                      
006b2c   0000     nop                      
006b2e   0000     nop                      
006b30   0000     nop                          data 0x0000, 0x0000, 0x0000, 0x0000 ; 6B30
006b32   0000     nop                      
006b34   0000     nop                      
006b36   0000     nop                      
006b38   0000     nop                          data 0x0000, 0x0000, 0x0000, 0x0000 ; 6B38
006b3a   0000     nop                      
006b3c   0000     nop                      
006b3e   0000     nop                      
006b40   0000     nop                          data 0x0000, 0x0000, 0x0000, 0x0000 ; 6B40
006b42   0000     nop                      
006b44   0000     nop                      
006b46   0000     nop                      
006b48   0000     nop                          data 0x0000, 0x0000, 0x0000, 0x0000 ; 6B48
006b4a   0000     nop                      
006b4c   0000     nop                      
006b4e   0000     nop                      
006b50   0000     nop                          data 0x0000, 0x0000, 0x0000, 0x0000 ; 6B50
006b52   0000     nop                      
006b54   0000     nop                      
006b56   0000     nop                      
006b58   0000     nop                          data 0x0000, 0x0000, 0x0000, 0x0000 ; 6B58
006b5a   0000     nop                      
006b5c   0000     nop                      
006b5e   0000     nop                      
006b60   0000     nop                          data 0x0000, 0x0000, 0x0000, 0x0000 ; 6B60
006b62   0000     nop                      
006b64   0000     nop                      
006b66   0000     nop                      
006b68   0000     nop                          data 0x0000, 0x0000, 0x0000, 0x0000 ; 6B68
006b6a   0000     nop                      
006b6c   0000     nop                      
006b6e   0000     nop                      
006b70   0000     nop                          data 0x0000, 0x0000, 0x0000, 0x0000 ; 6B70
006b72   0000     nop                      
006b74   0000     nop                      
006b76   0000     nop                      
006b78   0000     nop                          data 0x0000, 0x0000, 0x0000, 0x0000 ; 6B78
006b7a   0000     nop                      
006b7c   0000     nop                      
006b7e   0000     nop                      
006b80   0000     nop                          data 0x0000, 0x0000, 0x0000, 0x0000 ; 6B80
006b82   0000     nop                      
006b84   0000     nop                      
006b86   0000     nop                      
006b88   0000     nop                          data 0x0000, 0x0000, 0x0000, 0x0000 ; 6B88
006b8a   0000     nop                      
006b8c   0000     nop                      
006b8e   0000     nop                      
006b90   0000     nop                          data 0x0000, 0x0000, 0x0000, 0x0000 ; 6B90
006b92   0000     nop                      
006b94   0000     nop                      
006b96   0000     nop                      
006b98   0000     nop                          data 0x0000, 0x0000, 0x0000, 0x0000 ; 6B98
006b9a   0000     nop                      
006b9c   0000     nop                      
006b9e   0000     nop                      
006ba0   0000     nop                          data 0x0000, 0x0000, 0x0000, 0x0000 ; 6BA0
006ba2   0000     nop                      
006ba4   0000     nop                      
006ba6   0000     nop                      
006ba8   0000     nop                          data 0x0000, 0x0000, 0x0000, 0x0000 ; 6BA8
006baa   0000     nop                      
006bac   0000     nop                      
006bae   0000     nop                      
006bb0   0000     nop                          data 0x0000, 0x0000, 0x0000, 0x0000 ; 6BB0
006bb2   0000     nop                      
006bb4   0000     nop                      
006bb6   0000     nop                      
006bb8   0000     nop                          data 0x0000, 0x0000, 0x0000, 0x0000 ; 6BB8
006bba   0000     nop                      
006bbc   0000     nop                      
006bbe   0000     nop                      
006bc0   0000     nop                          data 0x0000, 0x0000, 0x0000, 0x0000 ; 6BC0
006bc2   0000     nop                      
006bc4   0000     nop                      
006bc6   0000     nop                      
006bc8   0000     nop                          data 0x0000, 0x0000, 0x0000, 0x0000 ; 6BC8
006bca   0000     nop                      
006bcc   0000     nop                      
006bce   0000     nop                      
006bd0   0000     nop                          data 0x0000, 0x0000, 0x0000, 0x0000 ; 6BD0
006bd2   0000     nop                      
006bd4   0000     nop                      
006bd6   0000     nop                      
006bd8   0000     nop                          data 0x0000, 0x0000, 0x0000, 0x0000 ; 6BD8
006bda   0000     nop                      
006bdc   0000     nop                      
006bde   0000     nop                      
006be0   0000     nop                          data 0x0000, 0x0000, 0x0000, 0x0000 ; 6BE0
006be2   0000     nop                      
006be4   0000     nop                      
006be6   0000     nop                      
006be8   0000     nop                          data 0x0000, 0x0000, 0x0000, 0x0000 ; 6BE8
006bea   0000     nop                      
006bec   0000     nop                      
006bee   0000     nop                      
006bf0   0000     nop                          data 0x0000, 0x0000, 0x0000, 0x0000 ; 6BF0
006bf2   0000     nop                      
006bf4   0000     nop                      
006bf6   0000     nop                      
006bf8   0000     nop                          data 0x0000, 0x0000, 0x0000, 0x0000 ; 6BF8
006bfa   0000     nop                      
006bfc   0000     nop                      
006bfe   0000     nop                      
006c00   0000     nop                          data 0x0000, 0x0000, 0x0000, 0x0000 ; 6C00
006c02   0000     nop                      
006c04   0000     nop                      
006c06   0000     nop                      
006c08   0000     nop                          data 0x0000, 0x0000, 0x0000, 0x0000 ; 6C08
006c0a   0000     nop                      
006c0c   0000     nop                      
006c0e   0000     nop                      
006c10   0000     nop                          data 0x0000, 0x0000, 0x0000, 0x0000 ; 6C10
006c12   0000     nop                      
006c14   0000     nop                      
006c16   0000     nop                      
006c18   0000     nop                          data 0x0000, 0x0000, 0x0000, 0x0000 ; 6C18
006c1a   0000     nop                      
006c1c   0000     nop                      
006c1e   0000     nop                      
006c20   0000     nop                          data 0x0000, 0x0000, 0x0000, 0x0000 ; 6C20
006c22   0000     nop                      
006c24   0000     nop                      
006c26   0000     nop                      
006c28   0000     nop                          data 0x0000, 0x0000, 0x0000, 0x0000 ; 6C28
006c2a   0000     nop                      
006c2c   0000     nop                      
006c2e   0000     nop                      
006c30   0000     nop                          data 0x0000, 0x0000, 0x0000, 0x0000 ; 6C30
006c32   0000     nop                      
006c34   0000     nop                      
006c36   0000     nop                      
006c38   0000     nop                          data 0x0000, 0x0000, 0x0000, 0x0000 ; 6C38
006c3a   0000     nop                      
006c3c   0000     nop                      
006c3e   0000     nop                      
006c40   0000     nop                          data 0x0000, 0x0000, 0x0000, 0x0000 ; 6C40
006c42   0000     nop                      
006c44   0000     nop                      
006c46   0000     nop                      
006c48   0000     nop                          data 0x0000, 0x0000, 0x0000, 0x0000 ; 6C48
006c4a   0000     nop                      
006c4c   0000     nop                      
006c4e   0000     nop                      
006c50   0000     nop                          data 0x0000, 0x0000, 0x0000, 0x0000 ; 6C50
006c52   0000     nop                      
006c54   0000     nop                      
006c56   0000     nop                      
006c58   0000     nop                          data 0x0000, 0x0000, 0x0000, 0x0000 ; 6C58
006c5a   0000     nop                      
006c5c   0000     nop                      
006c5e   0000     nop                      
006c60   0000     nop                          data 0x0000, 0x0000, 0x0000, 0x0000 ; 6C60
006c62   0000     nop                      
006c64   0000     nop                      
006c66   0000     nop                      
006c68   0000     nop                          data 0x0000, 0x0000, 0x0000, 0x0000 ; 6C68
006c6a   0000     nop                      
006c6c   0000     nop                      
006c6e   0000     nop                      
006c70   0000     nop                          data 0x0000, 0x0000, 0x0000, 0x0000 ; 6C70
006c72   0000     nop                      
006c74   0000     nop                      
006c76   0000     nop                      
006c78   0000     nop                          data 0x0000, 0x0000, 0x0000, 0x0000 ; 6C78
006c7a   0000     nop                      
006c7c   0000     nop                      
006c7e   0000     nop                      
006c80   0000     nop                          data 0x0000, 0x0000, 0x0000, 0x0000 ; 6C80
006c82   0000     nop                      
006c84   0000     nop                      
006c86   0000     nop                      
006c88   0000     nop                          data 0x0000, 0x0000, 0x0000, 0x0000 ; 6C88
006c8a   0000     nop                      
006c8c   0000     nop                      
006c8e   0000     nop                      
006c90   0000     nop                          data 0x0000, 0x0000, 0x0000, 0x0000 ; 6C90
006c92   0000     nop                      
006c94   0000     nop                      
006c96   0000     nop                      
006c98   0000     nop                          data 0x0000, 0x0000, 0x0000, 0x0000 ; 6C98
006c9a   0000     nop                      
006c9c   0000     nop                      
006c9e   0000     nop                      
006ca0   0000     nop                          data 0x0000, 0x0000, 0x0000, 0x0000 ; 6CA0
006ca2   0000     nop                      
006ca4   0000     nop                      
006ca6   0000     nop                      
006ca8   0000     nop                          data 0x0000, 0x0000, 0x0000, 0x0000 ; 6CA8
006caa   0000     nop                      
006cac   0000     nop                      
006cae   0000     nop                      
006cb0   0000     nop                          data 0x0000, 0x0000, 0x0000, 0x0000 ; 6CB0
006cb2   0000     nop                      
006cb4   0000     nop                      
006cb6   0000     nop                      
006cb8   0000     nop                          data 0x0000, 0x0000, 0x0000, 0x0000 ; 6CB8
006cba   0000     nop                      
006cbc   0000     nop                      
006cbe   0000     nop                      
006cc0   0000     nop                          data 0x0000, 0x0000, 0x0000, 0x0000 ; 6CC0
006cc2   0000     nop                      
006cc4   0000     nop                      
006cc6   0000     nop                      
006cc8   0000     nop                          data 0x0000, 0x0000, 0x0000, 0x0000 ; 6CC8
006cca   0000     nop                      
006ccc   0000     nop                      
006cce   0000     nop                      
006cd0   0000     nop                          data 0x0000, 0x0000, 0x0000, 0x0000 ; 6CD0
006cd2   0000     nop                      
006cd4   0000     nop                      
006cd6   0000     nop                      
006cd8   0000     nop                          data 0x0000, 0x0000, 0x0000, 0x0000 ; 6CD8
006cda   0000     nop                      
006cdc   0000     nop                      
006cde   0000     nop                      
006ce0   0000     nop                          data 0x0000, 0x0000, 0x0000, 0x0000 ; 6CE0
006ce2   0000     nop                      
006ce4   0000     nop                      
006ce6   0000     nop                      
006ce8   0000     nop                          data 0x0000, 0x0000, 0x0000, 0x0000 ; 6CE8
006cea   0000     nop                      
006cec   0000     nop                      
006cee   0000     nop                      
006cf0   0000     nop                          data 0x0000, 0x0000, 0x0000, 0x0000 ; 6CF0
006cf2   0000     nop                      
006cf4   0000     nop                      
006cf6   0000     nop                      
006cf8   0000     nop                          data 0x0000, 0x0000, 0x0000, 0x0000 ; 6CF8
006cfa   0000     nop                      
006cfc   0000     nop                      
006cfe   0000     nop                      
006d00   0000     nop                          data 0x0000, 0x0000, 0x0000, 0x0000 ; 6D00
006d02   0000     nop                      
006d04   0000     nop                      
006d06   0000     nop                      
006d08   0000     nop                          data 0x0000, 0x0000, 0x0000, 0x0000 ; 6D08
006d0a   0000     nop                      
006d0c   0000     nop                      
006d0e   0000     nop                      
006d10   0000     nop                          data 0x0000, 0x0000, 0x0000, 0x0000 ; 6D10
006d12   0000     nop                      
006d14   0000     nop                      
006d16   0000     nop                      
006d18   0000     nop                          data 0x0000, 0x0000, 0x0000, 0x0000 ; 6D18
006d1a   0000     nop                      
006d1c   0000     nop                      
006d1e   0000     nop                      
006d20   0000     nop                          data 0x0000, 0x0000, 0x0000, 0x0000 ; 6D20
006d22   0000     nop                      
006d24   0000     nop                      
006d26   0000     nop                      
006d28   0000     nop                          data 0x0000, 0x0000, 0x0000, 0x0000 ; 6D28
006d2a   0000     nop                      
006d2c   0000     nop                      
006d2e   0000     nop                      
006d30   0000     nop                          data 0x0000, 0x0000, 0x0000, 0x0000 ; 6D30
006d32   0000     nop                      
006d34   0000     nop                      
006d36   0000     nop                      
006d38   0000     nop                          data 0x0000, 0x0000, 0x0000, 0x0000 ; 6D38
006d3a   0000     nop                      
006d3c   0000     nop                      
006d3e   0000     nop                      
006d40   0000     nop                          data 0x0000, 0x0000, 0x0000, 0x0000 ; 6D40
006d42   0000     nop                      
006d44   0000     nop                      
006d46   0000     nop                      
006d48   0000     nop                          data 0x0000, 0x0000, 0x0000, 0x0000 ; 6D48
006d4a   0000     nop                      
006d4c   0000     nop                      
006d4e   0000     nop                      
006d50   0000     nop                          data 0x0000, 0x0000, 0x0000, 0x0000 ; 6D50
006d52   0000     nop                      
006d54   0000     nop                      
006d56   0000     nop                      
006d58   0000     nop                          data 0x0000, 0x0000, 0x0000, 0x0000 ; 6D58
006d5a   0000     nop                      
006d5c   0000     nop                      
006d5e   0000     nop                      
006d60   0000     nop                          data 0x0000, 0x0000, 0x0000, 0x0000 ; 6D60
006d62   0000     nop                      
006d64   0000     nop                      
006d66   0000     nop                      
006d68   0000     nop                          data 0x0000, 0x0000, 0x0000, 0x0000 ; 6D68
006d6a   0000     nop                      
006d6c   0000     nop                      
006d6e   0000     nop                      
006d70   0000     nop                          data 0x0000, 0x0000, 0x0000, 0x0000 ; 6D70
006d72   0000     nop                      
006d74   0000     nop                      
006d76   0000     nop                      
006d78   0000     nop                          data 0x0000, 0x0000, 0x0000, 0x0000 ; 6D78
006d7a   0000     nop                      
006d7c   0000     nop                      
006d7e   0000     nop                      
006d80   0000     nop                          data 0x0000, 0x0000, 0x0000, 0x0000 ; 6D80
006d82   0000     nop                      
006d84   0000     nop                      
006d86   0000     nop                      
006d88   0000     nop                          data 0x0000, 0x0000, 0x0000, 0x0000 ; 6D88
006d8a   0000     nop                      
006d8c   0000     nop                      
006d8e   0000     nop                      
006d90   0000     nop                          data 0x0000, 0x0000, 0x0000, 0x0000 ; 6D90
006d92   0000     nop                      
006d94   0000     nop                      
006d96   0000     nop                      
006d98   0000     nop                          data 0x0000, 0x0000, 0x0000, 0x0000 ; 6D98
006d9a   0000     nop                      
006d9c   0000     nop                      
006d9e   0000     nop                      
006da0   0000     nop                          data 0x0000, 0x0000, 0x0000, 0x0000 ; 6DA0
006da2   0000     nop                      
006da4   0000     nop                      
006da6   0000     nop                      
006da8   0000     nop                          data 0x0000, 0x0000, 0x0000, 0x0000 ; 6DA8
006daa   0000     nop                      
006dac   0000     nop                      
006dae   0000     nop                      
006db0   0000     nop                          data 0x0000, 0x0000, 0x0000, 0x0000 ; 6DB0
006db2   0000     nop                      
006db4   0000     nop                      
006db6   0000     nop                      
006db8   0000     nop                          data 0x0000, 0x0000, 0x0000, 0x0000 ; 6DB8
006dba   0000     nop                      
006dbc   0000     nop                      
006dbe   0000     nop                      
006dc0   0000     nop                          data 0x0000, 0x0000, 0x0000, 0x0000 ; 6DC0
006dc2   0000     nop                      
006dc4   0000     nop                      
006dc6   0000     nop                      
006dc8   0000     nop                          data 0x0000, 0x0000, 0x0000, 0x0000 ; 6DC8
006dca   0000     nop                      
006dcc   0000     nop                      
006dce   0000     nop                      
006dd0   0000     nop                          data 0x0000, 0x0000, 0x0000, 0x0000 ; 6DD0
006dd2   0000     nop                      
006dd4   0000     nop                      
006dd6   0000     nop                      
006dd8   0000     nop                          data 0x0000, 0x0000, 0x0000, 0x0000 ; 6DD8
006dda   0000     nop                      
006ddc   0000     nop                      
006dde   0000     nop                      
006de0   0000     nop                          data 0x0000, 0x0000, 0x0000, 0x0000 ; 6DE0
006de2   0000     nop                      
006de4   0000     nop                      
006de6   0000     nop                      
006de8   0000     nop                          data 0x0000, 0x0000, 0x0000, 0x0000 ; 6DE8
006dea   0000     nop                      
006dec   0000     nop                      
006dee   0000     nop                      
006df0   0000     nop                          data 0x0000, 0x0000, 0x0000, 0x0000 ; 6DF0
006df2   0000     nop                      
006df4   0000     nop                      
006df6   0000     nop                      
006df8   0000     nop                          data 0x0000, 0x0000, 0x0000, 0x0000 ; 6DF8
006dfa   0000     nop                      
006dfc   0000     nop                      
006dfe   0000     nop                      
006e00   0000     nop                          data 0x0000, 0x0000, 0x0000, 0x0000 ; 6E00
006e02   0000     nop                      
006e04   0000     nop                      
006e06   0000     nop                      
006e08   0000     nop                          data 0x0000, 0x0000, 0x0000, 0x0000 ; 6E08
006e0a   0000     nop                      
006e0c   0000     nop                      
006e0e   0000     nop                      
006e10   0000     nop                          data 0x0000, 0x0000, 0x0000, 0x0000 ; 6E10
006e12   0000     nop                      
006e14   0000     nop                      
006e16   0000     nop                      
006e18   0000     nop                          data 0x0000, 0x0000, 0x0000, 0x0000 ; 6E18
006e1a   0000     nop                      
006e1c   0000     nop                      
006e1e   0000     nop                      
006e20   0000     nop                          data 0x0000, 0x0000, 0x0000, 0x0000 ; 6E20
006e22   0000     nop                      
006e24   0000     nop                      
006e26   0000     nop                      
006e28   0000     nop                          data 0x0000, 0x0000, 0x0000, 0x0000 ; 6E28
006e2a   0000     nop                      
006e2c   0000     nop                      
006e2e   0000     nop                      
006e30   0000     nop                          data 0x0000, 0x0000, 0x0000, 0x0000 ; 6E30
006e32   0000     nop                      
006e34   0000     nop                      
006e36   0000     nop                      
006e38   0000     nop                          data 0x0000, 0x0000, 0x0000, 0x0000 ; 6E38
006e3a   0000     nop                      
006e3c   0000     nop                      
006e3e   0000     nop                      
006e40   0000     nop                          data 0x0000, 0x0000, 0x0000, 0x0000 ; 6E40
006e42   0000     nop                      
006e44   0000     nop                      
006e46   0000     nop                      
006e48   0000     nop                          data 0x0000, 0x0000, 0x0000, 0x0000 ; 6E48
006e4a   0000     nop                      
006e4c   0000     nop                      
006e4e   0000     nop                      
006e50   0000     nop                          data 0x0000, 0x0000, 0x0000, 0x0000 ; 6E50
006e52   0000     nop                      
006e54   0000     nop                      
006e56   0000     nop                      
006e58   0000     nop                          data 0x0000, 0x0000, 0x0000, 0x0000 ; 6E58
006e5a   0000     nop                      
006e5c   0000     nop                      
006e5e   0000     nop                      
006e60   0000     nop                          data 0x0000, 0x0000, 0x0000, 0x0000 ; 6E60
006e62   0000     nop                      
006e64   0000     nop                      
006e66   0000     nop                      
006e68   0000     nop                          data 0x0000, 0x0000, 0x0000, 0x0000 ; 6E68
006e6a   0000     nop                      
006e6c   0000     nop                      
006e6e   0000     nop                      
006e70   0000     nop                          data 0x0000, 0x0000, 0x0000, 0x0000 ; 6E70
006e72   0000     nop                      
006e74   0000     nop                      
006e76   0000     nop                      
006e78   0000     nop                          data 0x0000, 0x0000, 0x0000, 0x0000 ; 6E78
006e7a   0000     nop                      
006e7c   0000     nop                      
006e7e   0000     nop                      
006e80   0000     nop                          data 0x0000, 0x0000, 0x0000, 0x0000 ; 6E80
006e82   0000     nop                      
006e84   0000     nop                      
006e86   0000     nop                      
006e88   0000     nop                          data 0x0000, 0x0000, 0x0000, 0x0000 ; 6E88
006e8a   0000     nop                      
006e8c   0000     nop                      
006e8e   0000     nop                      
006e90   0000     nop                          data 0x0000, 0x0000, 0x0000, 0x0000 ; 6E90
006e92   0000     nop                      
006e94   0000     nop                      
006e96   0000     nop                      
006e98   0000     nop                          data 0x0000, 0x0000, 0x0000, 0x0000 ; 6E98
006e9a   0000     nop                      
006e9c   0000     nop                      
006e9e   0000     nop                      
006ea0   0000     nop                          data 0x0000, 0x0000, 0x0000, 0x0000 ; 6EA0
006ea2   0000     nop                      
006ea4   0000     nop                      
006ea6   0000     nop                      
006ea8   0000     nop                          data 0x0000, 0x0000, 0x0000, 0x0000 ; 6EA8
006eaa   0000     nop                      
006eac   0000     nop                      
006eae   0000     nop                      
006eb0   0000     nop                          data 0x0000, 0x0000, 0x0000, 0x0000 ; 6EB0
006eb2   0000     nop                      
006eb4   0000     nop                      
006eb6   0000     nop                      
006eb8   0000     nop                          data 0x0000, 0x0000, 0x0000, 0x0000 ; 6EB8
006eba   0000     nop                      
006ebc   0000     nop                      
006ebe   0000     nop                      
006ec0   0000     nop                          data 0x0000, 0x0000, 0x0000, 0x0000 ; 6EC0
006ec2   0000     nop                      
006ec4   0000     nop                      
006ec6   0000     nop                      
006ec8   0000     nop                          data 0x0000, 0x0000, 0x0000, 0x0000 ; 6EC8
006eca   0000     nop                      
006ecc   0000     nop                      
006ece   0000     nop                      
006ed0   0000     nop                          data 0x0000, 0x0000, 0x0000, 0x0000 ; 6ED0
006ed2   0000     nop                      
006ed4   0000     nop                      
006ed6   0000     nop                      
006ed8   0000     nop                          data 0x0000, 0x0000, 0x0000, 0x0000 ; 6ED8
006eda   0000     nop                      
006edc   0000     nop                      
006ede   0000     nop                      
006ee0   0000     nop                          data 0x0000, 0x0000, 0x0000, 0x0000 ; 6EE0
006ee2   0000     nop                      
006ee4   0000     nop                      
006ee6   0000     nop                      
006ee8   0000     nop                          data 0x0000, 0x0000, 0x0000, 0x0000 ; 6EE8
006eea   0000     nop                      
006eec   0000     nop                      
006eee   0000     nop                      
006ef0   0000     nop                          data 0x0000, 0x0000, 0x0000, 0x0000 ; 6EF0
006ef2   0000     nop                      
006ef4   0000     nop                      
006ef6   0000     nop                      
006ef8   0000     nop                          data 0x0000, 0x0000, 0x0000, 0x0000 ; 6EF8
006efa   0000     nop                      
006efc   0000     nop                      
006efe   0000     nop                      
006f00   0000     nop                          data 0x0000, 0x0000, 0x0000, 0x0000 ; 6F00
006f02   0000     nop                      
006f04   0000     nop                      
006f06   0000     nop                      
006f08   0000     nop                          data 0x0000, 0x0000, 0x0000, 0x0000 ; 6F08
006f0a   0000     nop                      
006f0c   0000     nop                      
006f0e   0000     nop                      
006f10   0000     nop                          data 0x0000, 0x0000, 0x0000, 0x0000 ; 6F10
006f12   0000     nop                      
006f14   0000     nop                      
006f16   0000     nop                      
006f18   0000     nop                          data 0x0000, 0x0000, 0x0000, 0x0000 ; 6F18
006f1a   0000     nop                      
006f1c   0000     nop                      
006f1e   0000     nop                      
006f20   0000     nop                          data 0x0000, 0x0000, 0x0000, 0x0000 ; 6F20
006f22   0000     nop                      
006f24   0000     nop                      
006f26   0000     nop                      
006f28   0000     nop                          data 0x0000, 0x0000, 0x0000, 0x0000 ; 6F28
006f2a   0000     nop                      
006f2c   0000     nop                      
006f2e   0000     nop                      
006f30   0000     nop                          data 0x0000, 0x0000, 0x0000, 0x0000 ; 6F30
006f32   0000     nop                      
006f34   0000     nop                      
006f36   0000     nop                      
006f38   0000     nop                          data 0x0000, 0x0000, 0x0000, 0x0000 ; 6F38
006f3a   0000     nop                      
006f3c   0000     nop                      
006f3e   0000     nop                      
006f40   0000     nop                          data 0x0000, 0x0000, 0x0000, 0x0000 ; 6F40
006f42   0000     nop                      
006f44   0000     nop                      
006f46   0000     nop                      
006f48   0000     nop                          data 0x0000, 0x0000, 0x0000, 0x0000 ; 6F48
006f4a   0000     nop                      
006f4c   0000     nop                      
006f4e   0000     nop                      
006f50   0000     nop                          data 0x0000, 0x0000, 0x0000, 0x0000 ; 6F50
006f52   0000     nop                      
006f54   0000     nop                      
006f56   0000     nop                      
006f58   0000     nop                          data 0x0000, 0x0000, 0x0000, 0x0000 ; 6F58
006f5a   0000     nop                      
006f5c   0000     nop                      
006f5e   0000     nop                      
006f60   0000     nop                          data 0x0000, 0x0000, 0x0000, 0x0000 ; 6F60
006f62   0000     nop                      
006f64   0000     nop                      
006f66   0000     nop                      
006f68   0000     nop                          data 0x0000, 0x0000, 0x0000, 0x0000 ; 6F68
006f6a   0000     nop                      
006f6c   0000     nop                      
006f6e   0000     nop                      
006f70   0000     nop                          data 0x0000, 0x0000, 0x0000, 0x0000 ; 6F70
006f72   0000     nop                      
006f74   0000     nop                      
006f76   0000     nop                      
006f78   0000     nop                          data 0x0000, 0x0000, 0x0000, 0x0000 ; 6F78
006f7a   0000     nop                      
006f7c   0000     nop                      
006f7e   0000     nop                      
006f80   0000     nop                          data 0x0000, 0x0000, 0x0000, 0x0000 ; 6F80
006f82   0000     nop                      
006f84   0000     nop                      
006f86   0000     nop                      
006f88   0000     nop                          data 0x0000, 0x0000, 0x0000, 0x0000 ; 6F88
006f8a   0000     nop                      
006f8c   0000     nop                      
006f8e   0000     nop                      
006f90   0000     nop                          data 0x0000, 0x0000, 0x0000, 0x0000 ; 6F90
006f92   0000     nop                      
006f94   0000     nop                      
006f96   0000     nop                      
006f98   0000     nop                          data 0x0000, 0x0000, 0x0000, 0x0000 ; 6F98
006f9a   0000     nop                      
006f9c   0000     nop                      
006f9e   0000     nop                      
006fa0   0000     nop                          data 0x0000, 0x0000, 0x0000, 0x0000 ; 6FA0
006fa2   0000     nop                      
006fa4   0000     nop                      
006fa6   0000     nop                      
006fa8   0000     nop                          data 0x0000, 0x0000, 0x0000, 0x0000 ; 6FA8
006faa   0000     nop                      
006fac   0000     nop                      
006fae   0000     nop                      
006fb0   0000     nop                          data 0x0000, 0x0000, 0x0000, 0x0000 ; 6FB0
006fb2   0000     nop                      
006fb4   0000     nop                      
006fb6   0000     nop                      
006fb8   0000     nop                          data 0x0000, 0x0000, 0x0000, 0x0000 ; 6FB8
006fba   0000     nop                      
006fbc   0000     nop                      
006fbe   0000     nop                      
006fc0   0000     nop                          data 0x0000, 0x0000, 0x0000, 0x0000 ; 6FC0
006fc2   0000     nop                      
006fc4   0000     nop                      
006fc6   0000     nop                      
006fc8   0000     nop                          data 0x0000, 0x0000, 0x0000, 0x0000 ; 6FC8
006fca   0000     nop                      
006fcc   0000     nop                      
006fce   0000     nop                      
006fd0   0000     nop                          data 0x0000, 0x0000, 0x0000, 0x0000 ; 6FD0
006fd2   0000     nop                      
006fd4   0000     nop                      
006fd6   0000     nop                      
006fd8   0000     nop                          data 0x0000, 0x0000, 0x0000, 0x0000 ; 6FD8
006fda   0000     nop                      
006fdc   0000     nop                      
006fde   0000     nop                      
006fe0   0000     nop                          data 0x0000, 0x0000, 0x0000, 0x0000 ; 6FE0
006fe2   0000     nop                      
006fe4   0000     nop                      
006fe6   0000     nop                      
006fe8   0000     nop                          data 0x0000, 0x0000, 0x0000, 0x0000 ; 6FE8
006fea   0000     nop                      
006fec   0000     nop                      
006fee   0000     nop                      
006ff0   0000     nop                          data 0x0000, 0x0000, 0x0000, 0x0000 ; 6FF0
006ff2   0000     nop                      
006ff4   0000     nop                      
006ff6   0000     nop                      
006ff8   0000     nop                          data 0x0000, 0x0000, 0x0000, 0x0000 ; 6FF8
006ffa   0000     nop                      
006ffc   0000     nop                      
006ffe   0000     nop                      
007000   0000     nop                          data 0x0000, 0x0000, 0x0000, 0x0000 ; 7000
007002   0000     nop                      
007004   0000     nop                      
007006   0000     nop                      
007008   0000     nop                          data 0x0000, 0x0000, 0x0000, 0x0000 ; 7008
00700a   0000     nop                      
00700c   0000     nop                      
00700e   0000     nop                      
007010   0000     nop                          data 0x0000, 0x0000, 0x0000, 0x0000 ; 7010
007012   0000     nop                      
007014   0000     nop                      
007016   0000     nop                      
007018   0000     nop                          data 0x0000, 0x0000, 0x0000, 0x0000 ; 7018
00701a   0000     nop                      
00701c   0000     nop                      
00701e   0000     nop                      
007020   0000     nop                          data 0x0000, 0x0000, 0x0000, 0x0000 ; 7020
007022   0000     nop                      
007024   0000     nop                      
007026   0000     nop                      
007028   0000     nop                          data 0x0000, 0x0000, 0x0000, 0x0000 ; 7028
00702a   0000     nop                      
00702c   0000     nop                      
00702e   0000     nop                      
007030   0000     nop                          data 0x0000, 0x0000, 0x0000, 0x0000 ; 7030
007032   0000     nop                      
007034   0000     nop                      
007036   0000     nop                      
007038   0000     nop                          data 0x0000, 0x0000, 0x0000, 0x0000 ; 7038
00703a   0000     nop                      
00703c   0000     nop                      
00703e   0000     nop                      
007040   0000     nop                          data 0x0000, 0x0000, 0x0000, 0x0000 ; 7040
007042   0000     nop                      
007044   0000     nop                      
007046   0000     nop                      
007048   0000     nop                          data 0x0000, 0x0000, 0x0000, 0x0000 ; 7048
00704a   0000     nop                      
00704c   0000     nop                      
00704e   0000     nop                      
007050   0000     nop                          data 0x0000, 0x0000, 0x0000, 0x0000 ; 7050
007052   0000     nop                      
007054   0000     nop                      
007056   0000     nop                      
007058   0000     nop                          data 0x0000, 0x0000, 0x0000, 0x0000 ; 7058
00705a   0000     nop                      
00705c   0000     nop                      
00705e   0000     nop                      
007060   0000     nop                          data 0x0000, 0x0000, 0x0000, 0x0000 ; 7060
007062   0000     nop                      
007064   0000     nop                      
007066   0000     nop                      
007068   0000     nop                          data 0x0000, 0x0000, 0x0000, 0x0000 ; 7068
00706a   0000     nop                      
00706c   0000     nop                      
00706e   0000     nop                      
007070   0000     nop                          data 0x0000, 0x0000, 0x0000, 0x0000 ; 7070
007072   0000     nop                      
007074   0000     nop                      
007076   0000     nop                      
007078   0000     nop                          data 0x0000, 0x0000, 0x0000, 0x0000 ; 7078
00707a   0000     nop                      
00707c   0000     nop                      
00707e   0000     nop                      
007080   0000     nop                          data 0x0000, 0x0000, 0x0000, 0x0000 ; 7080
007082   0000     nop                      
007084   0000     nop                      
007086   0000     nop                      
007088   0000     nop                          data 0x0000, 0x0000, 0x0000, 0x0000 ; 7088
00708a   0000     nop                      
00708c   0000     nop                      
00708e   0000     nop                      
007090   0000     nop                          data 0x0000, 0x0000, 0x0000, 0x0000 ; 7090
007092   0000     nop                      
007094   0000     nop                      
007096   0000     nop                      
007098   0000     nop                          data 0x0000, 0x0000, 0x0000, 0x0000 ; 7098
00709a   0000     nop                      
00709c   0000     nop                      
00709e   0000     nop                      
0070a0   0000     nop                          data 0x0000, 0x0000, 0x0000, 0x0000 ; 70A0
0070a2   0000     nop                      
0070a4   0000     nop                      
0070a6   0000     nop                      
0070a8   0000     nop                          data 0x0000, 0x0000, 0x0000, 0x0000 ; 70A8
0070aa   0000     nop                      
0070ac   0000     nop                      
0070ae   0000     nop                      
0070b0   0000     nop                          data 0x0000, 0x0000, 0x0000, 0x0000 ; 70B0
0070b2   0000     nop                      
0070b4   0000     nop                      
0070b6   0000     nop                      
0070b8   0000     nop                          data 0x0000, 0x0000, 0x0000, 0x0000 ; 70B8
0070ba   0000     nop                      
0070bc   0000     nop                      
0070be   0000     nop                      
0070c0   0000     nop                          data 0x0000, 0x0000, 0x0000, 0x0000 ; 70C0
0070c2   0000     nop                      
0070c4   0000     nop                      
0070c6   0000     nop                      
0070c8   0000     nop                          data 0x0000, 0x0000, 0x0000, 0x0000 ; 70C8
0070ca   0000     nop                      
0070cc   0000     nop                      
0070ce   0000     nop                      
0070d0   0000     nop                          data 0x0000, 0x0000, 0x0000, 0x0000 ; 70D0
0070d2   0000     nop                      
0070d4   0000     nop                      
0070d6   0000     nop                      
0070d8   0000     nop                          data 0x0000, 0x0000, 0x0000, 0x0000 ; 70D8
0070da   0000     nop                      
0070dc   0000     nop                      
0070de   0000     nop                      
0070e0   0000     nop                          data 0x0000, 0x0000, 0x0000, 0x0000 ; 70E0
0070e2   0000     nop                      
0070e4   0000     nop                      
0070e6   0000     nop                      
0070e8   0000     nop                          data 0x0000, 0x0000, 0x0000, 0x0000 ; 70E8
0070ea   0000     nop                      
0070ec   0000     nop                      
0070ee   0000     nop                      
0070f0   0000     nop                          data 0x0000, 0x0000, 0x0000, 0x0000 ; 70F0
0070f2   0000     nop                      
0070f4   0000     nop                      
0070f6   0000     nop                      
0070f8   0000     nop                          data 0x0000, 0x0000, 0x0000, 0x0000 ; 70F8
0070fa   0000     nop                      
0070fc   0000     nop                      
0070fe   0000     nop                      
007100   0000     nop                          data 0x0000, 0x0000, 0x0000, 0x0000 ; 7100
007102   0000     nop                      
007104   0000     nop                      
007106   0000     nop                      
007108   0000     nop                          data 0x0000, 0x0000, 0x0000, 0x0000 ; 7108
00710a   0000     nop                      
00710c   0000     nop                      
00710e   0000     nop                      
007110   0000     nop                          data 0x0000, 0x0000, 0x0000, 0x0000 ; 7110
007112   0000     nop                      
007114   0000     nop                      
007116   0000     nop                      
007118   0000     nop                          data 0x0000, 0x0000, 0x0000, 0x0000 ; 7118
00711a   0000     nop                      
00711c   0000     nop                      
00711e   0000     nop                      
007120   0000     nop                          data 0x0000, 0x0000, 0x0000, 0x0000 ; 7120
007122   0000     nop                      
007124   0000     nop                      
007126   0000     nop                      
007128   0000     nop                          data 0x0000, 0x0000, 0x0000, 0x0000 ; 7128
00712a   0000     nop                      
00712c   0000     nop                      
00712e   0000     nop                      
007130   0000     nop                          data 0x0000, 0x0000, 0x0000, 0x0000 ; 7130
007132   0000     nop                      
007134   0000     nop                      
007136   0000     nop                      
007138   0000     nop                          data 0x0000, 0x0000, 0x0000, 0x0000 ; 7138
00713a   0000     nop                      
00713c   0000     nop                      
00713e   0000     nop                      
007140   0000     nop                          data 0x0000, 0x0000, 0x0000, 0x0000 ; 7140
007142   0000     nop                      
007144   0000     nop                      
007146   0000     nop                      
007148   0000     nop                          data 0x0000, 0x0000, 0x0000, 0x0000 ; 7148
00714a   0000     nop                      
00714c   0000     nop                      
00714e   0000     nop                      
007150   0000     nop                          data 0x0000, 0x0000, 0x0000, 0x0000 ; 7150
007152   0000     nop                      
007154   0000     nop                      
007156   0000     nop                      
007158   0000     nop                          data 0x0000, 0x0000, 0x0000, 0x0000 ; 7158
00715a   0000     nop                      
00715c   0000     nop                      
00715e   0000     nop                      
007160   0000     nop                          data 0x0000, 0x0000, 0x0000, 0x0000 ; 7160
007162   0000     nop                      
007164   0000     nop                      
007166   0000     nop                      
007168   0000     nop                          data 0x0000, 0x0000, 0x0000, 0x0000 ; 7168
00716a   0000     nop                      
00716c   0000     nop                      
00716e   0000     nop                      
007170   0000     nop                          data 0x0000, 0x0000, 0x0000, 0x0000 ; 7170
007172   0000     nop                      
007174   0000     nop                      
007176   0000     nop                      
007178   0000     nop                          data 0x0000, 0x0000, 0x0000, 0x0000 ; 7178
00717a   0000     nop                      
00717c   0000     nop                      
00717e   0000     nop                      
007180   0000     nop                          data 0x0000, 0x0000, 0x0000, 0x0000 ; 7180
007182   0000     nop                      
007184   0000     nop                      
007186   0000     nop                      
007188   0000     nop                          data 0x0000, 0x0000, 0x0000, 0x0000 ; 7188
00718a   0000     nop                      
00718c   0000     nop                      
00718e   0000     nop                      
007190   0000     nop                          data 0x0000, 0x0000, 0x0000, 0x0000 ; 7190
007192   0000     nop                      
007194   0000     nop                      
007196   0000     nop                      
007198   0000     nop                          data 0x0000, 0x0000, 0x0000, 0x0000 ; 7198
00719a   0000     nop                      
00719c   0000     nop                      
00719e   0000     nop                      
0071a0   0000     nop                          data 0x0000, 0x0000, 0x0000, 0x0000 ; 71A0
0071a2   0000     nop                      
0071a4   0000     nop                      
0071a6   0000     nop                      
0071a8   0000     nop                          data 0x0000, 0x0000, 0x0000, 0x0000 ; 71A8
0071aa   0000     nop                      
0071ac   0000     nop                      
0071ae   0000     nop                      
0071b0   0000     nop                          data 0x0000, 0x0000, 0x0000, 0x0000 ; 71B0
0071b2   0000     nop                      
0071b4   0000     nop                      
0071b6   0000     nop                      
0071b8   0000     nop                          data 0x0000, 0x0000, 0x0000, 0x0000 ; 71B8
0071ba   0000     nop                      
0071bc   0000     nop                      
0071be   0000     nop                      
0071c0   0000     nop                          data 0x0000, 0x0000, 0x0000, 0x0000 ; 71C0
0071c2   0000     nop                      
0071c4   0000     nop                      
0071c6   0000     nop                      
0071c8   0000     nop                          data 0x0000, 0x0000, 0x0000, 0x0000 ; 71C8
0071ca   0000     nop                      
0071cc   0000     nop                      
0071ce   0000     nop                      
0071d0   0000     nop                          data 0x0000, 0x0000, 0x0000, 0x0000 ; 71D0
0071d2   0000     nop                      
0071d4   0000     nop                      
0071d6   0000     nop                      
0071d8   0000     nop                          data 0x0000, 0x0000, 0x0000, 0x0000 ; 71D8
0071da   0000     nop                      
0071dc   0000     nop                      
0071de   0000     nop                      
0071e0   0000     nop                          data 0x0000, 0x0000, 0x0000, 0x0000 ; 71E0
0071e2   0000     nop                      
0071e4   0000     nop                      
0071e6   0000     nop                      
0071e8   0000     nop                          data 0x0000, 0x0000, 0x0000, 0x0000 ; 71E8
0071ea   0000     nop                      
0071ec   0000     nop                      
0071ee   0000     nop                      
0071f0   0000     nop                          data 0x0000, 0x0000, 0x0000, 0x0000 ; 71F0
0071f2   0000     nop                      
0071f4   0000     nop                      
0071f6   0000     nop                      
0071f8   0000     nop                          data 0x0000, 0x0000, 0x0000, 0x0000 ; 71F8
0071fa   0000     nop                      
0071fc   0000     nop                      
0071fe   0000     nop                      
007200   0000     nop                          data 0x0000, 0x0000, 0x0000, 0x0000 ; 7200
007202   0000     nop                      
007204   0000     nop                      
007206   0000     nop                      
007208   0000     nop                          data 0x0000, 0x0000, 0x0000, 0x0000 ; 7208
00720a   0000     nop                      
00720c   0000     nop                      
00720e   0000     nop                      
007210   0000     nop                          data 0x0000, 0x0000, 0x0000, 0x0000 ; 7210
007212   0000     nop                      
007214   0000     nop                      
007216   0000     nop                      
007218   0000     nop                          data 0x0000, 0x0000, 0x0000, 0x0000 ; 7218
00721a   0000     nop                      
00721c   0000     nop                      
00721e   0000     nop                      
007220   0000     nop                          data 0x0000, 0x0000, 0x0000, 0x0000 ; 7220
007222   0000     nop                      
007224   0000     nop                      
007226   0000     nop                      
007228   0000     nop                          data 0x0000, 0x0000, 0x0000, 0x0000 ; 7228
00722a   0000     nop                      
00722c   0000     nop                      
00722e   0000     nop                      
007230   0000     nop                          data 0x0000, 0x0000, 0x0000, 0x0000 ; 7230
007232   0000     nop                      
007234   0000     nop                      
007236   0000     nop                      
007238   0000     nop                          data 0x0000, 0x0000, 0x0000, 0x0000 ; 7238
00723a   0000     nop                      
00723c   0000     nop                      
00723e   0000     nop                      
007240   0000     nop                          data 0x0000, 0x0000, 0x0000, 0x0000 ; 7240
007242   0000     nop                      
007244   0000     nop                      
007246   0000     nop                      
007248   0000     nop                          data 0x0000, 0x0000, 0x0000, 0x0000 ; 7248
00724a   0000     nop                      
00724c   0000     nop                      
00724e   0000     nop                      
007250   0000     nop                          data 0x0000, 0x0000, 0x0000, 0x0000 ; 7250
007252   0000     nop                      
007254   0000     nop                      
007256   0000     nop                      
007258   0000     nop                          data 0x0000, 0x0000, 0x0000, 0x0000 ; 7258
00725a   0000     nop                      
00725c   0000     nop                      
00725e   0000     nop                      
007260   0000     nop                          data 0x0000, 0x0000, 0x0000, 0x0000 ; 7260
007262   0000     nop                      
007264   0000     nop                      
007266   0000     nop                      
007268   0000     nop                          data 0x0000, 0x0000, 0x0000, 0x0000 ; 7268
00726a   0000     nop                      
00726c   0000     nop                      
00726e   0000     nop                      
007270   0000     nop                          data 0x0000, 0x0000, 0x0000, 0x0000 ; 7270
007272   0000     nop                      
007274   0000     nop                      
007276   0000     nop                      
007278   0000     nop                          data 0x0000, 0x0000, 0x0000, 0x0000 ; 7278
00727a   0000     nop                      
00727c   0000     nop                      
00727e   0000     nop                      
007280   0000     nop                          data 0x0000, 0x0000, 0x0000, 0x0000 ; 7280
007282   0000     nop                      
007284   0000     nop                      
007286   0000     nop                      
007288   0000     nop                          data 0x0000, 0x0000, 0x0000, 0x0000 ; 7288
00728a   0000     nop                      
00728c   0000     nop                      
00728e   0000     nop                      
007290   0000     nop                          data 0x0000, 0x0000, 0x0000, 0x0000 ; 7290
007292   0000     nop                      
007294   0000     nop                      
007296   0000     nop                      
007298   0000     nop                          data 0x0000, 0x0000, 0x0000, 0x0000 ; 7298
00729a   0000     nop                      
00729c   0000     nop                      
00729e   0000     nop                      
0072a0   0000     nop                          data 0x0000, 0x0000, 0x0000, 0x0000 ; 72A0
0072a2   0000     nop                      
0072a4   0000     nop                      
0072a6   0000     nop                      
0072a8   0000     nop                          data 0x0000, 0x0000, 0x0000, 0x0000 ; 72A8
0072aa   0000     nop                      
0072ac   0000     nop                      
0072ae   0000     nop                      
0072b0   0000     nop                          data 0x0000, 0x0000, 0x0000, 0x0000 ; 72B0
0072b2   0000     nop                      
0072b4   0000     nop                      
0072b6   0000     nop                      
0072b8   0000     nop                          data 0x0000, 0x0000, 0x0000, 0x0000 ; 72B8
0072ba   0000     nop                      
0072bc   0000     nop                      
0072be   0000     nop                      
0072c0   0000     nop                          data 0x0000, 0x0000, 0x0000, 0x0000 ; 72C0
0072c2   0000     nop                      
0072c4   0000     nop                      
0072c6   0000     nop                      
0072c8   0000     nop                          data 0x0000, 0x0000, 0x0000, 0x0000 ; 72C8
0072ca   0000     nop                      
0072cc   0000     nop                      
0072ce   0000     nop                      
0072d0   0000     nop                          data 0x0000, 0x0000, 0x0000, 0x0000 ; 72D0
0072d2   0000     nop                      
0072d4   0000     nop                      
0072d6   0000     nop                      
0072d8   0000     nop                          data 0x0000, 0x0000, 0x0000, 0x0000 ; 72D8
0072da   0000     nop                      
0072dc   0000     nop                      
0072de   0000     nop                      
0072e0   0000     nop                          data 0x0000, 0x0000, 0x0000, 0x0000 ; 72E0
0072e2   0000     nop                      
0072e4   0000     nop                      
0072e6   0000     nop                      
0072e8   0000     nop                          data 0x0000, 0x0000, 0x0000, 0x0000 ; 72E8
0072ea   0000     nop                      
0072ec   0000     nop                      
0072ee   0000     nop                      
0072f0   0000     nop                          data 0x0000, 0x0000, 0x0000, 0x0000 ; 72F0
0072f2   0000     nop                      
0072f4   0000     nop                      
0072f6   0000     nop                      
0072f8   0000     nop                          data 0x0000, 0x0000, 0x0000, 0x0000 ; 72F8
0072fa   0000     nop                      
0072fc   0000     nop                      
0072fe   0000     nop                      
007300   0000     nop                          data 0x0000, 0x0000, 0x0000, 0x0000 ; 7300
007302   0000     nop                      
007304   0000     nop                      
007306   0000     nop                      
007308   0000     nop                          data 0x0000, 0x0000, 0x0000, 0x0000 ; 7308
00730a   0000     nop                      
00730c   0000     nop                      
00730e   0000     nop                      
007310   0000     nop                          data 0x0000, 0x0000, 0x0000, 0x0000 ; 7310
007312   0000     nop                      
007314   0000     nop                      
007316   0000     nop                      
007318   0000     nop                          data 0x0000, 0x0000, 0x0000, 0x0000 ; 7318
00731a   0000     nop                      
00731c   0000     nop                      
00731e   0000     nop                      
007320   0000     nop                          data 0x0000, 0x0000, 0x0000, 0x0000 ; 7320
007322   0000     nop                      
007324   0000     nop                      
007326   0000     nop                      
007328   0000     nop                          data 0x0000, 0x0000, 0x0000, 0x0000 ; 7328
00732a   0000     nop                      
00732c   0000     nop                      
00732e   0000     nop                      
007330   0000     nop                          data 0x0000, 0x0000, 0x0000, 0x0000 ; 7330
007332   0000     nop                      
007334   0000     nop                      
007336   0000     nop                      
007338   0000     nop                          data 0x0000, 0x0000, 0x0000, 0x0000 ; 7338
00733a   0000     nop                      
00733c   0000     nop                      
00733e   0000     nop                      
007340   0000     nop                          data 0x0000, 0x0000, 0x0000, 0x0000 ; 7340
007342   0000     nop                      
007344   0000     nop                      
007346   0000     nop                      
007348   0000     nop                          data 0x0000, 0x0000, 0x0000, 0x0000 ; 7348
00734a   0000     nop                      
00734c   0000     nop                      
00734e   0000     nop                      
007350   0000     nop                          data 0x0000, 0x0000, 0x0000, 0x0000 ; 7350
007352   0000     nop                      
007354   0000     nop                      
007356   0000     nop                      
007358   0000     nop                          data 0x0000, 0x0000, 0x0000, 0x0000 ; 7358
00735a   0000     nop                      
00735c   0000     nop                      
00735e   0000     nop                      
007360   0000     nop                          data 0x0000, 0x0000, 0x0000, 0x0000 ; 7360
007362   0000     nop                      
007364   0000     nop                      
007366   0000     nop                      
007368   0000     nop                          data 0x0000, 0x0000, 0x0000, 0x0000 ; 7368
00736a   0000     nop                      
00736c   0000     nop                      
00736e   0000     nop                      
007370   0000     nop                          data 0x0000, 0x0000, 0x0000, 0x0000 ; 7370
007372   0000     nop                      
007374   0000     nop                      
007376   0000     nop                      
007378   0000     nop                          data 0x0000, 0x0000, 0x0000, 0x0000 ; 7378
00737a   0000     nop                      
00737c   0000     nop                      
00737e   0000     nop                      
007380   0000     nop                          data 0x0000, 0x0000, 0x0000, 0x0000 ; 7380
007382   0000     nop                      
007384   0000     nop                      
007386   0000     nop                      
007388   0000     nop                          data 0x0000, 0x0000, 0x0000, 0x0000 ; 7388
00738a   0000     nop                      
00738c   0000     nop                      
00738e   0000     nop                      
007390   0000     nop                          data 0x0000, 0x0000, 0x0000, 0x0000 ; 7390
007392   0000     nop                      
007394   0000     nop                      
007396   0000     nop                      
007398   0000     nop                          data 0x0000, 0x0000, 0x0000, 0x0000 ; 7398
00739a   0000     nop                      
00739c   0000     nop                      
00739e   0000     nop                      
0073a0   0000     nop                          data 0x0000, 0x0000, 0x0000, 0x0000 ; 73A0
0073a2   0000     nop                      
0073a4   0000     nop                      
0073a6   0000     nop                      
0073a8   0000     nop                          data 0x0000, 0x0000, 0x0000, 0x0000 ; 73A8
0073aa   0000     nop                      
0073ac   0000     nop                      
0073ae   0000     nop                      
0073b0   0000     nop                          data 0x0000, 0x0000, 0x0000, 0x0000 ; 73B0
0073b2   0000     nop                      
0073b4   0000     nop                      
0073b6   0000     nop                      
0073b8   0000     nop                          data 0x0000, 0x0000, 0x0000, 0x0000 ; 73B8
0073ba   0000     nop                      
0073bc   0000     nop                      
0073be   0000     nop                      
0073c0   0000     nop                          data 0x0000, 0x0000, 0x0000, 0x0000 ; 73C0
0073c2   0000     nop                      
0073c4   0000     nop                      
0073c6   0000     nop                      
0073c8   0000     nop                          data 0x0000, 0x0000, 0x0000, 0x0000 ; 73C8
0073ca   0000     nop                      
0073cc   0000     nop                      
0073ce   0000     nop                      
0073d0   0000     nop                          data 0x0000, 0x0000, 0x0000, 0x0000 ; 73D0
0073d2   0000     nop                      
0073d4   0000     nop                      
0073d6   0000     nop                      
0073d8   0000     nop                          data 0x0000, 0x0000, 0x0000, 0x0000 ; 73D8
0073da   0000     nop                      
0073dc   0000     nop                      
0073de   0000     nop                      
0073e0   0000     nop                          data 0x0000, 0x0000, 0x0000, 0x0000 ; 73E0
0073e2   0000     nop                      
0073e4   0000     nop                      
0073e6   0000     nop                      
0073e8   0000     nop                          data 0x0000, 0x0000, 0x0000, 0x0000 ; 73E8
0073ea   0000     nop                      
0073ec   0000     nop                      
0073ee   0000     nop                      
0073f0   0000     nop                          data 0x0000, 0x0000, 0x0000, 0x0000 ; 73F0
0073f2   0000     nop                      
0073f4   0000     nop                      
0073f6   0000     nop                      
0073f8   0000     nop                          data 0x0000, 0x0000, 0x0000, 0x0000 ; 73F8
0073fa   0000     nop                      
0073fc   0000     nop                      
0073fe   0000     nop                      
007400   0000     nop                          data 0x0000, 0x0000, 0x0000, 0x0000 ; 7400
007402   0000     nop                      
007404   0000     nop                      
007406   0000     nop                      
007408   0000     nop                          data 0x0000, 0x0000, 0x0000, 0x0000 ; 7408
00740a   0000     nop                      
00740c   0000     nop                      
00740e   0000     nop                      
007410   0000     nop                          data 0x0000, 0x0000, 0x0000, 0x0000 ; 7410
007412   0000     nop                      
007414   0000     nop                      
007416   0000     nop                      
007418   0000     nop                          data 0x0000, 0x0000, 0x0000, 0x0000 ; 7418
00741a   0000     nop                      
00741c   0000     nop                      
00741e   0000     nop                      
007420   0000     nop                          data 0x0000, 0x0000, 0x0000, 0x0000 ; 7420
007422   0000     nop                      
007424   0000     nop                      
007426   0000     nop                      
007428   0000     nop                          data 0x0000, 0x0000, 0x0000, 0x0000 ; 7428
00742a   0000     nop                      
00742c   0000     nop                      
00742e   0000     nop                      
007430   0000     nop                          data 0x0000, 0x0000, 0x0000, 0x0000 ; 7430
007432   0000     nop                      
007434   0000     nop                      
007436   0000     nop                      
007438   0000     nop                          data 0x0000, 0x0000, 0x0000, 0x0000 ; 7438
00743a   0000     nop                      
00743c   0000     nop                      
00743e   0000     nop                      
007440   0000     nop                          data 0x0000, 0x0000, 0x0000, 0x0000 ; 7440
007442   0000     nop                      
007444   0000     nop                      
007446   0000     nop                      
007448   0000     nop                          data 0x0000, 0x0000, 0x0000, 0x0000 ; 7448
00744a   0000     nop                      
00744c   0000     nop                      
00744e   0000     nop                      
007450   0000     nop                          data 0x0000, 0x0000, 0x0000, 0x0000 ; 7450
007452   0000     nop                      
007454   0000     nop                      
007456   0000     nop                      
007458   0000     nop                          data 0x0000, 0x0000, 0x0000, 0x0000 ; 7458
00745a   0000     nop                      
00745c   0000     nop                      
00745e   0000     nop                      
007460   0000     nop                          data 0x0000, 0x0000, 0x0000, 0x0000 ; 7460
007462   0000     nop                      
007464   0000     nop                      
007466   0000     nop                      
007468   0000     nop                          data 0x0000, 0x0000, 0x0000, 0x0000 ; 7468
00746a   0000     nop                      
00746c   0000     nop                      
00746e   0000     nop                      
007470   0000     nop                          data 0x0000, 0x0000, 0x0000, 0x0000 ; 7470
007472   0000     nop                      
007474   0000     nop                      
007476   0000     nop                      
007478   0000     nop                          data 0x0000, 0x0000, 0x0000, 0x0000 ; 7478
00747a   0000     nop                      
00747c   0000     nop                      
00747e   0000     nop                      
007480   0000     nop                          data 0x0000, 0x0000, 0x0000, 0x0000 ; 7480
007482   0000     nop                      
007484   0000     nop                      
007486   0000     nop                      
007488   0000     nop                          data 0x0000, 0x0000, 0x0000, 0x0000 ; 7488
00748a   0000     nop                      
00748c   0000     nop                      
00748e   0000     nop                      
007490   0000     nop                          data 0x0000, 0x0000, 0x0000, 0x0000 ; 7490
007492   0000     nop                      
007494   0000     nop                      
007496   0000     nop                      
007498   0000     nop                          data 0x0000, 0x0000, 0x0000, 0x0000 ; 7498
00749a   0000     nop                      
00749c   0000     nop                      
00749e   0000     nop                      
0074a0   0000     nop                          data 0x0000, 0x0000, 0x0000, 0x0000 ; 74A0
0074a2   0000     nop                      
0074a4   0000     nop                      
0074a6   0000     nop                      
0074a8   0000     nop                          data 0x0000, 0x0000, 0x0000, 0x0000 ; 74A8
0074aa   0000     nop                      
0074ac   0000     nop                      
0074ae   0000     nop                      
0074b0   0000     nop                          data 0x0000, 0x0000, 0x0000, 0x0000 ; 74B0
0074b2   0000     nop                      
0074b4   0000     nop                      
0074b6   0000     nop                      
0074b8   0000     nop                          data 0x0000, 0x0000, 0x0000, 0x0000 ; 74B8
0074ba   0000     nop                      
0074bc   0000     nop                      
0074be   0000     nop                      
0074c0   0000     nop                          data 0x0000, 0x0000, 0x0000, 0x0000 ; 74C0
0074c2   0000     nop                      
0074c4   0000     nop                      
0074c6   0000     nop                      
0074c8   0000     nop                          data 0x0000, 0x0000, 0x0000, 0x0000 ; 74C8
0074ca   0000     nop                      
0074cc   0000     nop                      
0074ce   0000     nop                      
0074d0   0000     nop                          data 0x0000, 0x0000, 0x0000, 0x0000 ; 74D0
0074d2   0000     nop                      
0074d4   0000     nop                      
0074d6   0000     nop                      
0074d8   0000     nop                          data 0x0000, 0x0000, 0x0000, 0x0000 ; 74D8
0074da   0000     nop                      
0074dc   0000     nop                      
0074de   0000     nop                      
0074e0   0000     nop                          data 0x0000, 0x0000, 0x0000, 0x0000 ; 74E0
0074e2   0000     nop                      
0074e4   0000     nop                      
0074e6   0000     nop                      
0074e8   0000     nop                          data 0x0000, 0x0000, 0x0000, 0x0000 ; 74E8
0074ea   0000     nop                      
0074ec   0000     nop                      
0074ee   0000     nop                      
0074f0   0000     nop                          data 0x0000, 0x0000, 0x0000, 0x0000 ; 74F0
0074f2   0000     nop                      
0074f4   0000     nop                      
0074f6   0000     nop                      
0074f8   0000     nop                          data 0x0000, 0x0000, 0x0000, 0x0000 ; 74F8
0074fa   0000     nop                      
0074fc   0000     nop                      
0074fe   0000     nop                      
007500   0000     nop                          data 0x0000, 0x0000, 0x0000, 0x0000 ; 7500
007502   0000     nop                      
007504   0000     nop                      
007506   0000     nop                      
007508   0000     nop                          data 0x0000, 0x0000, 0x0000, 0x0000 ; 7508
00750a   0000     nop                      
00750c   0000     nop                      
00750e   0000     nop                      
007510   0000     nop                          data 0x0000, 0x0000, 0x0000, 0x0000 ; 7510
007512   0000     nop                      
007514   0000     nop                      
007516   0000     nop                      
007518   0000     nop                          data 0x0000, 0x0000, 0x0000, 0x0000 ; 7518
00751a   0000     nop                      
00751c   0000     nop                      
00751e   0000     nop                      
007520   0000     nop                          data 0x0000, 0x0000, 0x0000, 0x0000 ; 7520
007522   0000     nop                      
007524   0000     nop                      
007526   0000     nop                      
007528   0000     nop                          data 0x0000, 0x0000, 0x0000, 0x0000 ; 7528
00752a   0000     nop                      
00752c   0000     nop                      
00752e   0000     nop                      
007530   0000     nop                          data 0x0000, 0x0000, 0x0000, 0x0000 ; 7530
007532   0000     nop                      
007534   0000     nop                      
007536   0000     nop                      
007538   0000     nop                          data 0x0000, 0x0000, 0x0000, 0x0000 ; 7538
00753a   0000     nop                      
00753c   0000     nop                      
00753e   0000     nop                      
007540   0000     nop                          data 0x0000, 0x0000, 0x0000, 0x0000 ; 7540
007542   0000     nop                      
007544   0000     nop                      
007546   0000     nop                      
007548   0000     nop                          data 0x0000, 0x0000, 0x0000, 0x0000 ; 7548
00754a   0000     nop                      
00754c   0000     nop                      
00754e   0000     nop                      
007550   0000     nop                          data 0x0000, 0x0000, 0x0000, 0x0000 ; 7550
007552   0000     nop                      
007554   0000     nop                      
007556   0000     nop                      
007558   0000     nop                          data 0x0000, 0x0000, 0x0000, 0x0000 ; 7558
00755a   0000     nop                      
00755c   0000     nop                      
00755e   0000     nop                      
007560   0000     nop                          data 0x0000, 0x0000, 0x0000, 0x0000 ; 7560
007562   0000     nop                      
007564   0000     nop                      
007566   0000     nop                      
007568   0000     nop                          data 0x0000, 0x0000, 0x0000, 0x0000 ; 7568
00756a   0000     nop                      
00756c   0000     nop                      
00756e   0000     nop                      
007570   0000     nop                          data 0x0000, 0x0000, 0x0000, 0x0000 ; 7570
007572   0000     nop                      
007574   0000     nop                      
007576   0000     nop                      
007578   0000     nop                          data 0x0000, 0x0000, 0x0000, 0x0000 ; 7578
00757a   0000     nop                      
00757c   0000     nop                      
00757e   0000     nop                      
007580   0000     nop                          data 0x0000, 0x0000, 0x0000, 0x0000 ; 7580
007582   0000     nop                      
007584   0000     nop                      
007586   0000     nop                      
007588   0000     nop                          data 0x0000, 0x0000, 0x0000, 0x0000 ; 7588
00758a   0000     nop                      
00758c   0000     nop                      
00758e   0000     nop                      
007590   0000     nop                          data 0x0000, 0x0000, 0x0000, 0x0000 ; 7590
007592   0000     nop                      
007594   0000     nop                      
007596   0000     nop                      
007598   0000     nop                          data 0x0000, 0x0000, 0x0000, 0x0000 ; 7598
00759a   0000     nop                      
00759c   0000     nop                      
00759e   0000     nop                      
0075a0   0000     nop                          data 0x0000, 0x0000, 0x0000, 0x0000 ; 75A0
0075a2   0000     nop                      
0075a4   0000     nop                      
0075a6   0000     nop                      
0075a8   0000     nop                          data 0x0000, 0x0000, 0x0000, 0x0000 ; 75A8
0075aa   0000     nop                      
0075ac   0000     nop                      
0075ae   0000     nop                      
0075b0   0000     nop                          data 0x0000, 0x0000, 0x0000, 0x0000 ; 75B0
0075b2   0000     nop                      
0075b4   0000     nop                      
0075b6   0000     nop                      
0075b8   0000     nop                          data 0x0000, 0x0000, 0x0000, 0x0000 ; 75B8
0075ba   0000     nop                      
0075bc   0000     nop                      
0075be   0000     nop                      
0075c0   0000     nop                          data 0x0000, 0x0000, 0x0000, 0x0000 ; 75C0
0075c2   0000     nop                      
0075c4   0000     nop                      
0075c6   0000     nop                      
0075c8   0000     nop                          data 0x0000, 0x0000, 0x0000, 0x0000 ; 75C8
0075ca   0000     nop                      
0075cc   0000     nop                      
0075ce   0000     nop                      
0075d0   0000     nop                          data 0x0000, 0x0000, 0x0000, 0x0000 ; 75D0
0075d2   0000     nop                      
0075d4   0000     nop                      
0075d6   0000     nop                      
0075d8   0000     nop                          data 0x0000, 0x0000, 0x0000, 0x0000 ; 75D8
0075da   0000     nop                      
0075dc   0000     nop                      
0075de   0000     nop                      
0075e0   0000     nop                          data 0x0000, 0x0000, 0x0000, 0x0000 ; 75E0
0075e2   0000     nop                      
0075e4   0000     nop                      
0075e6   0000     nop                      
0075e8   0000     nop                          data 0x0000, 0x0000, 0x0000, 0x0000 ; 75E8
0075ea   0000     nop                      
0075ec   0000     nop                      
0075ee   0000     nop                      
0075f0   0000     nop                          data 0x0000, 0x0000, 0x0000, 0x0000 ; 75F0
0075f2   0000     nop                      
0075f4   0000     nop                      
0075f6   0000     nop                      
0075f8   0000     nop                          data 0x0000, 0x0000, 0x0000, 0x0000 ; 75F8
0075fa   0000     nop                      
0075fc   0000     nop                      
0075fe   0000     nop                      
007600   0000     nop                          data 0x0000, 0x0000, 0x0000, 0x0000 ; 7600
007602   0000     nop                      
007604   0000     nop                      
007606   0000     nop                      
007608   0000     nop                          data 0x0000, 0x0000, 0x0000, 0x0000 ; 7608
00760a   0000     nop                      
00760c   0000     nop                      
00760e   0000     nop                      
007610   0000     nop                          data 0x0000, 0x0000, 0x0000, 0x0000 ; 7610
007612   0000     nop                      
007614   0000     nop                      
007616   0000     nop                      
007618   0000     nop                          data 0x0000, 0x0000, 0x0000, 0x0000 ; 7618
00761a   0000     nop                      
00761c   0000     nop                      
00761e   0000     nop                      
007620   0000     nop                          data 0x0000, 0x0000, 0x0000, 0x0000 ; 7620
007622   0000     nop                      
007624   0000     nop                      
007626   0000     nop                      
007628   0000     nop                          data 0x0000, 0x0000, 0x0000, 0x0000 ; 7628
00762a   0000     nop                      
00762c   0000     nop                      
00762e   0000     nop                      
007630   0000     nop                          data 0x0000, 0x0000, 0x0000, 0x0000 ; 7630
007632   0000     nop                      
007634   0000     nop                      
007636   0000     nop                      
007638   0000     nop                          data 0x0000, 0x0000, 0x0000, 0x0000 ; 7638
00763a   0000     nop                      
00763c   0000     nop                      
00763e   0000     nop                      
007640   0000     nop                          data 0x0000, 0x0000, 0x0000, 0x0000 ; 7640
007642   0000     nop                      
007644   0000     nop                      
007646   0000     nop                      
007648   0000     nop                          data 0x0000, 0x0000, 0x0000, 0x0000 ; 7648
00764a   0000     nop                      
00764c   0000     nop                      
00764e   0000     nop                      
007650   0000     nop                          data 0x0000, 0x0000, 0x0000, 0x0000 ; 7650
007652   0000     nop                      
007654   0000     nop                      
007656   0000     nop                      
007658   0000     nop                          data 0x0000, 0x0000, 0x0000, 0x0000 ; 7658
00765a   0000     nop                      
00765c   0000     nop                      
00765e   0000     nop                      
007660   0000     nop                          data 0x0000, 0x0000, 0x0000, 0x0000 ; 7660
007662   0000     nop                      
007664   0000     nop                      
007666   0000     nop                      
007668   0000     nop                          data 0x0000, 0x0000, 0x0000, 0x0000 ; 7668
00766a   0000     nop                      
00766c   0000     nop                      
00766e   0000     nop                      
007670   0000     nop                          data 0x0000, 0x0000, 0x0000, 0x0000 ; 7670
007672   0000     nop                      
007674   0000     nop                      
007676   0000     nop                      
007678   0000     nop                          data 0x0000, 0x0000, 0x0000, 0x0000 ; 7678
00767a   0000     nop                      
00767c   0000     nop                      
00767e   0000     nop                      
007680   0000     nop                          data 0x0000, 0x0000, 0x0000, 0x0000 ; 7680
007682   0000     nop                      
007684   0000     nop                      
007686   0000     nop                      
007688   0000     nop                          data 0x0000, 0x0000, 0x0000, 0x0000 ; 7688
00768a   0000     nop                      
00768c   0000     nop                      
00768e   0000     nop                      
007690   0000     nop                          data 0x0000, 0x0000, 0x0000, 0x0000 ; 7690
007692   0000     nop                      
007694   0000     nop                      
007696   0000     nop                      
007698   0000     nop                          data 0x0000, 0x0000, 0x0000, 0x0000 ; 7698
00769a   0000     nop                      
00769c   0000     nop                      
00769e   0000     nop                      
0076a0   0000     nop                          data 0x0000, 0x0000, 0x0000, 0x0000 ; 76A0
0076a2   0000     nop                      
0076a4   0000     nop                      
0076a6   0000     nop                      
0076a8   0000     nop                          data 0x0000, 0x0000, 0x0000, 0x0000 ; 76A8
0076aa   0000     nop                      
0076ac   0000     nop                      
0076ae   0000     nop                      
0076b0   0000     nop                          data 0x0000, 0x0000, 0x0000, 0x0000 ; 76B0
0076b2   0000     nop                      
0076b4   0000     nop                      
0076b6   0000     nop                      
0076b8   0000     nop                          data 0x0000, 0x0000, 0x0000, 0x0000 ; 76B8
0076ba   0000     nop                      
0076bc   0000     nop                      
0076be   0000     nop                      
0076c0   0000     nop                          data 0x0000, 0x0000, 0x0000, 0x0000 ; 76C0
0076c2   0000     nop                      
0076c4   0000     nop                      
0076c6   0000     nop                      
0076c8   0000     nop                          data 0x0000, 0x0000, 0x0000, 0x0000 ; 76C8
0076ca   0000     nop                      
0076cc   0000     nop                      
0076ce   0000     nop                      
0076d0   0000     nop                          data 0x0000, 0x0000, 0x0000, 0x0000 ; 76D0
0076d2   0000     nop                      
0076d4   0000     nop                      
0076d6   0000     nop                      
0076d8   0000     nop                          data 0x0000, 0x0000, 0x0000, 0x0000 ; 76D8
0076da   0000     nop                      
0076dc   0000     nop                      
0076de   0000     nop                      
0076e0   0000     nop                          data 0x0000, 0x0000, 0x0000, 0x0000 ; 76E0
0076e2   0000     nop                      
0076e4   0000     nop                      
0076e6   0000     nop                      
0076e8   0000     nop                          data 0x0000, 0x0000, 0x0000, 0x0000 ; 76E8
0076ea   0000     nop                      
0076ec   0000     nop                      
0076ee   0000     nop                      
0076f0   0000     nop                          data 0x0000, 0x0000, 0x0000, 0x0000 ; 76F0
0076f2   0000     nop                      
0076f4   0000     nop                      
0076f6   0000     nop                      
0076f8   0000     nop                          data 0x0000, 0x0000, 0x0000, 0x0000 ; 76F8
0076fa   0000     nop                      
0076fc   0000     nop                      
0076fe   0000     nop                      
007700   0000     nop                          data 0x0000, 0x0000, 0x0000, 0x0000 ; 7700
007702   0000     nop                      
007704   0000     nop                      
007706   0000     nop                      
007708   0000     nop                          data 0x0000, 0x0000, 0x0000, 0x0000 ; 7708
00770a   0000     nop                      
00770c   0000     nop                      
00770e   0000     nop                      
007710   0000     nop                          data 0x0000, 0x0000, 0x0000, 0x0000 ; 7710
007712   0000     nop                      
007714   0000     nop                      
007716   0000     nop                      
007718   0000     nop                          data 0x0000, 0x0000, 0x0000, 0x0000 ; 7718
00771a   0000     nop                      
00771c   0000     nop                      
00771e   0000     nop                      
007720   0000     nop                          data 0x0000, 0x0000, 0x0000, 0x0000 ; 7720
007722   0000     nop                      
007724   0000     nop                      
007726   0000     nop                      
007728   0000     nop                          data 0x0000, 0x0000, 0x0000, 0x0000 ; 7728
00772a   0000     nop                      
00772c   0000     nop                      
00772e   0000     nop                      
007730   0000     nop                          data 0x0000, 0x0000, 0x0000, 0x0000 ; 7730
007732   0000     nop                      
007734   0000     nop                      
007736   0000     nop                      
007738   0000     nop                          data 0x0000, 0x0000, 0x0000, 0x0000 ; 7738
00773a   0000     nop                      
00773c   0000     nop                      
00773e   0000     nop                      
007740   0000     nop                          data 0x0000, 0x0000, 0x0000, 0x0000 ; 7740
007742   0000     nop                      
007744   0000     nop                      
007746   0000     nop                      
007748   0000     nop                          data 0x0000, 0x0000, 0x0000, 0x0000 ; 7748
00774a   0000     nop                      
00774c   0000     nop                      
00774e   0000     nop                      
007750   0000     nop                          data 0x0000, 0x0000, 0x0000, 0x0000 ; 7750
007752   0000     nop                      
007754   0000     nop                      
007756   0000     nop                      
007758   0000     nop                          data 0x0000, 0x0000, 0x0000, 0x0000 ; 7758
00775a   0000     nop                      
00775c   0000     nop                      
00775e   0000     nop                      
007760   0000     nop                          data 0x0000, 0x0000, 0x0000, 0x0000 ; 7760
007762   0000     nop                      
007764   0000     nop                      
007766   0000     nop                      
007768   0000     nop                          data 0x0000, 0x0000, 0x0000, 0x0000 ; 7768
00776a   0000     nop                      
00776c   0000     nop                      
00776e   0000     nop                      
007770   0000     nop                          data 0x0000, 0x0000, 0x0000, 0x0000 ; 7770
007772   0000     nop                      
007774   0000     nop                      
007776   0000     nop                      
007778   0000     nop                          data 0x0000, 0x0000, 0x0000, 0x0000 ; 7778
00777a   0000     nop                      
00777c   0000     nop                      
00777e   0000     nop                      
007780   0000     nop                          data 0x0000, 0x0000, 0x0000, 0x0000 ; 7780
007782   0000     nop                      
007784   0000     nop                      
007786   0000     nop                      
007788   0000     nop                          data 0x0000, 0x0000, 0x0000, 0x0000 ; 7788
00778a   0000     nop                      
00778c   0000     nop                      
00778e   0000     nop                      
007790   0000     nop                          data 0x0000, 0x0000, 0x0000, 0x0000 ; 7790
007792   0000     nop                      
007794   0000     nop                      
007796   0000     nop                      
007798   0000     nop                          data 0x0000, 0x0000, 0x0000, 0x0000 ; 7798
00779a   0000     nop                      
00779c   0000     nop                      
00779e   0000     nop                      
0077a0   0000     nop                          data 0x0000, 0x0000, 0x0000, 0x0000 ; 77A0
0077a2   0000     nop                      
0077a4   0000     nop                      
0077a6   0000     nop                      
0077a8   0000     nop                          data 0x0000, 0x0000, 0x0000, 0x0000 ; 77A8
0077aa   0000     nop                      
0077ac   0000     nop                      
0077ae   0000     nop                      
0077b0   0000     nop                          data 0x0000, 0x0000, 0x0000, 0x0000 ; 77B0
0077b2   0000     nop                      
0077b4   0000     nop                      
0077b6   0000     nop                      
0077b8   0000     nop                          data 0x0000, 0x0000, 0x0000, 0x0000 ; 77B8
0077ba   0000     nop                      
0077bc   0000     nop                      
0077be   0000     nop                      
0077c0   0000     nop                          data 0x0000, 0x0000, 0x0000, 0x0000 ; 77C0
0077c2   0000     nop                      
0077c4   0000     nop                      
0077c6   0000     nop                      
0077c8   0000     nop                          data 0x0000, 0x0000, 0x0000, 0x0000 ; 77C8
0077ca   0000     nop                      
0077cc   0000     nop                      
0077ce   0000     nop                      
0077d0   0000     nop                          data 0x0000, 0x0000, 0x0000, 0x0000 ; 77D0
0077d2   0000     nop                      
0077d4   0000     nop                      
0077d6   0000     nop                      
0077d8   0000     nop                          data 0x0000, 0x0000, 0x0000, 0x0000 ; 77D8
0077da   0000     nop                      
0077dc   0000     nop                      
0077de   0000     nop                      
0077e0   0000     nop                          data 0x0000, 0x0000, 0x0000, 0x0000 ; 77E0
0077e2   0000     nop                      
0077e4   0000     nop                      
0077e6   0000     nop                      
0077e8   0000     nop                          data 0x0000, 0x0000, 0x0000, 0x0000 ; 77E8
0077ea   0000     nop                      
0077ec   0000     nop                      
0077ee   0000     nop                      
0077f0   0000     nop                          data 0x0000, 0x0000, 0x0000, 0x0000 ; 77F0
0077f2   0000     nop                      
0077f4   0000     nop                      
0077f6   0000     nop                      
0077f8   0000     nop                          data 0x0000, 0x0000, 0x0000, 0x0000 ; 77F8
0077fa   0000     nop                      
0077fc   0000     nop                      
0077fe   0000     nop                      
007800   0000     nop                          data 0x0000, 0x0000, 0x0000, 0x0000 ; 7800
007802   0000     nop                      
007804   0000     nop                      
007806   0000     nop                      
007808   0000     nop                          data 0x0000, 0x0000, 0x0000, 0x0000 ; 7808
00780a   0000     nop                      
00780c   0000     nop                      
00780e   0000     nop                      
007810   0000     nop                          data 0x0000, 0x0000, 0x0000, 0x0000 ; 7810
007812   0000     nop                      
007814   0000     nop                      
007816   0000     nop                      
007818   0000     nop                          data 0x0000, 0x0000, 0x0000, 0x0000 ; 7818
00781a   0000     nop                      
00781c   0000     nop                      
00781e   0000     nop                      
007820   0000     nop                          data 0x0000, 0x0000, 0x0000, 0x0000 ; 7820
007822   0000     nop                      
007824   0000     nop                      
007826   0000     nop                      
007828   0000     nop                          data 0x0000, 0x0000, 0x0000, 0x0000 ; 7828
00782a   0000     nop                      
00782c   0000     nop                      
00782e   0000     nop                      
007830   0000     nop                          data 0x0000, 0x0000, 0x0000, 0x0000 ; 7830
007832   0000     nop                      
007834   0000     nop                      
007836   0000     nop                      
007838   0000     nop                          data 0x0000, 0x0000, 0x0000, 0x0000 ; 7838
00783a   0000     nop                      
00783c   0000     nop                      
00783e   0000     nop                      
007840   0000     nop                          data 0x0000, 0x0000, 0x0000, 0x0000 ; 7840
007842   0000     nop                      
007844   0000     nop                      
007846   0000     nop                      
007848   0000     nop                          data 0x0000, 0x0000, 0x0000, 0x0000 ; 7848
00784a   0000     nop                      
00784c   0000     nop                      
00784e   0000     nop                      
007850   0000     nop                          data 0x0000, 0x0000, 0x0000, 0x0000 ; 7850
007852   0000     nop                      
007854   0000     nop                      
007856   0000     nop                      
007858   0000     nop                          data 0x0000, 0x0000, 0x0000, 0x0000 ; 7858
00785a   0000     nop                      
00785c   0000     nop                      
00785e   0000     nop                      
007860   0000     nop                          data 0x0000, 0x0000, 0x0000, 0x0000 ; 7860
007862   0000     nop                      
007864   0000     nop                      
007866   0000     nop                      
007868   0000     nop                          data 0x0000, 0x0000, 0x0000, 0x0000 ; 7868
00786a   0000     nop                      
00786c   0000     nop                      
00786e   0000     nop                      
007870   0000     nop                          data 0x0000, 0x0000, 0x0000, 0x0000 ; 7870
007872   0000     nop                      
007874   0000     nop                      
007876   0000     nop                      
007878   0000     nop                          data 0x0000, 0x0000, 0x0000, 0x0000 ; 7878
00787a   0000     nop                      
00787c   0000     nop                      
00787e   0000     nop                      
007880   0000     nop                          data 0x0000, 0x0000, 0x0000, 0x0000 ; 7880
007882   0000     nop                      
007884   0000     nop                      
007886   0000     nop                      
007888   0000     nop                          data 0x0000, 0x0000, 0x0000, 0x0000 ; 7888
00788a   0000     nop                      
00788c   0000     nop                      
00788e   0000     nop                      
007890   0000     nop                          data 0x0000, 0x0000, 0x0000, 0x0000 ; 7890
007892   0000     nop                      
007894   0000     nop                      
007896   0000     nop                      
007898   0000     nop                          data 0x0000, 0x0000, 0x0000, 0x0000 ; 7898
00789a   0000     nop                      
00789c   0000     nop                      
00789e   0000     nop                      
0078a0   0000     nop                          data 0x0000, 0x0000, 0x0000, 0x0000 ; 78A0
0078a2   0000     nop                      
0078a4   0000     nop                      
0078a6   0000     nop                      
0078a8   0000     nop                          data 0x0000, 0x0000, 0x0000, 0x0000 ; 78A8
0078aa   0000     nop                      
0078ac   0000     nop                      
0078ae   0000     nop                      
0078b0   0000     nop                          data 0x0000, 0x0000, 0x0000, 0x0000 ; 78B0
0078b2   0000     nop                      
0078b4   0000     nop                      
0078b6   0000     nop                      
0078b8   0000     nop                          data 0x0000, 0x0000, 0x0000, 0x0000 ; 78B8
0078ba   0000     nop                      
0078bc   0000     nop                      
0078be   0000     nop                      
0078c0   0000     nop                          data 0x0000, 0x0000, 0x0000, 0x0000 ; 78C0
0078c2   0000     nop                      
0078c4   0000     nop                      
0078c6   0000     nop                      
0078c8   0000     nop                          data 0x0000, 0x0000, 0x0000, 0x0000 ; 78C8
0078ca   0000     nop                      
0078cc   0000     nop                      
0078ce   0000     nop                      
0078d0   0000     nop                          data 0x0000, 0x0000, 0x0000, 0x0000 ; 78D0
0078d2   0000     nop                      
0078d4   0000     nop                      
0078d6   0000     nop                      
0078d8   0000     nop                          data 0x0000, 0x0000, 0x0000, 0x0000 ; 78D8
0078da   0000     nop                      
0078dc   0000     nop                      
0078de   0000     nop                      
0078e0   0000     nop                          data 0x0000, 0x0000, 0x0000, 0x0000 ; 78E0
0078e2   0000     nop                      
0078e4   0000     nop                      
0078e6   0000     nop                      
0078e8   0000     nop                          data 0x0000, 0x0000, 0x0000, 0x0000 ; 78E8
0078ea   0000     nop                      
0078ec   0000     nop                      
0078ee   0000     nop                      
0078f0   0000     nop                          data 0x0000, 0x0000, 0x0000, 0x0000 ; 78F0
0078f2   0000     nop                      
0078f4   0000     nop                      
0078f6   0000     nop                      
0078f8   0000     nop                          data 0x0000, 0x0000, 0x0000, 0x0000 ; 78F8
0078fa   0000     nop                      
0078fc   0000     nop                      
0078fe   0000     nop                      
007900   0000     nop                          data 0x0000, 0x0000, 0x0000, 0x0000 ; 7900
007902   0000     nop                      
007904   0000     nop                      
007906   0000     nop                      
007908   0000     nop                          data 0x0000, 0x0000, 0x0000, 0x0000 ; 7908
00790a   0000     nop                      
00790c   0000     nop                      
00790e   0000     nop                      
007910   0000     nop                          data 0x0000, 0x0000, 0x0000, 0x0000 ; 7910
007912   0000     nop                      
007914   0000     nop                      
007916   0000     nop                      
007918   0000     nop                          data 0x0000, 0x0000, 0x0000, 0x0000 ; 7918
00791a   0000     nop                      
00791c   0000     nop                      
00791e   0000     nop                      
007920   0000     nop                          data 0x0000, 0x0000, 0x0000, 0x0000 ; 7920
007922   0000     nop                      
007924   0000     nop                      
007926   0000     nop                      
007928   0000     nop                          data 0x0000, 0x0000, 0x0000, 0x0000 ; 7928
00792a   0000     nop                      
00792c   0000     nop                      
00792e   0000     nop                      
007930   0000     nop                          data 0x0000, 0x0000, 0x0000, 0x0000 ; 7930
007932   0000     nop                      
007934   0000     nop                      
007936   0000     nop                      
007938   0000     nop                          data 0x0000, 0x0000, 0x0000, 0x0000 ; 7938
00793a   0000     nop                      
00793c   0000     nop                      
00793e   0000     nop                      
007940   0000     nop                          data 0x0000, 0x0000, 0x0000, 0x0000 ; 7940
007942   0000     nop                      
007944   0000     nop                      
007946   0000     nop                      
007948   0000     nop                          data 0x0000, 0x0000, 0x0000, 0x0000 ; 7948
00794a   0000     nop                      
00794c   0000     nop                      
00794e   0000     nop                      
007950   0000     nop                          data 0x0000, 0x0000, 0x0000, 0x0000 ; 7950
007952   0000     nop                      
007954   0000     nop                      
007956   0000     nop                      
007958   0000     nop                          data 0x0000, 0x0000, 0x0000, 0x0000 ; 7958
00795a   0000     nop                      
00795c   0000     nop                      
00795e   0000     nop                      
007960   0000     nop                          data 0x0000, 0x0000, 0x0000, 0x0000 ; 7960
007962   0000     nop                      
007964   0000     nop                      
007966   0000     nop                      
007968   0000     nop                          data 0x0000, 0x0000, 0x0000, 0x0000 ; 7968
00796a   0000     nop                      
00796c   0000     nop                      
00796e   0000     nop                      
007970   0000     nop                          data 0x0000, 0x0000, 0x0000, 0x0000 ; 7970
007972   0000     nop                      
007974   0000     nop                      
007976   0000     nop                      
007978   0000     nop                          data 0x0000, 0x0000, 0x0000, 0x0000 ; 7978
00797a   0000     nop                      
00797c   0000     nop                      
00797e   0000     nop                      
007980   0000     nop                          data 0x0000, 0x0000, 0x0000, 0x0000 ; 7980
007982   0000     nop                      
007984   0000     nop                      
007986   0000     nop                      
007988   0000     nop                          data 0x0000, 0x0000, 0x0000, 0x0000 ; 7988
00798a   0000     nop                      
00798c   0000     nop                      
00798e   0000     nop                      
007990   0000     nop                          data 0x0000, 0x0000, 0x0000, 0x0000 ; 7990
007992   0000     nop                      
007994   0000     nop                      
007996   0000     nop                      
007998   0000     nop                          data 0x0000, 0x0000, 0x0000, 0x0000 ; 7998
00799a   0000     nop                      
00799c   0000     nop                      
00799e   0000     nop                      
0079a0   0000     nop                          data 0x0000, 0x0000, 0x0000, 0x0000 ; 79A0
0079a2   0000     nop                      
0079a4   0000     nop                      
0079a6   0000     nop                      
0079a8   0000     nop                          data 0x0000, 0x0000, 0x0000, 0x0000 ; 79A8
0079aa   0000     nop                      
0079ac   0000     nop                      
0079ae   0000     nop                      
0079b0   0000     nop                          data 0x0000, 0x0000, 0x0000, 0x0000 ; 79B0
0079b2   0000     nop                      
0079b4   0000     nop                      
0079b6   0000     nop                      
0079b8   0000     nop                          data 0x0000, 0x0000, 0x0000, 0x0000 ; 79B8
0079ba   0000     nop                      
0079bc   0000     nop                      
0079be   0000     nop                      
0079c0   0000     nop                          data 0x0000, 0x0000, 0x0000, 0x0000 ; 79C0
0079c2   0000     nop                      
0079c4   0000     nop                      
0079c6   0000     nop                      
0079c8   0000     nop                          data 0x0000, 0x0000, 0x0000, 0x0000 ; 79C8
0079ca   0000     nop                      
0079cc   0000     nop                      
0079ce   0000     nop                      
0079d0   0000     nop                          data 0x0000, 0x0000, 0x0000, 0x0000 ; 79D0
0079d2   0000     nop                      
0079d4   0000     nop                      
0079d6   0000     nop                      
0079d8   0000     nop                          data 0x0000, 0x0000, 0x0000, 0x0000 ; 79D8
0079da   0000     nop                      
0079dc   0000     nop                      
0079de   0000     nop                      
0079e0   0000     nop                          data 0x0000, 0x0000, 0x0000, 0x0000 ; 79E0
0079e2   0000     nop                      
0079e4   0000     nop                      
0079e6   0000     nop                      
0079e8   0000     nop                          data 0x0000, 0x0000, 0x0000, 0x0000 ; 79E8
0079ea   0000     nop                      
0079ec   0000     nop                      
0079ee   0000     nop                      
0079f0   0000     nop                          data 0x0000, 0x0000, 0x0000, 0x0000 ; 79F0
0079f2   0000     nop                      
0079f4   0000     nop                      
0079f6   0000     nop                      
0079f8   0000     nop                          data 0x0000, 0x0000, 0x0000, 0x0000 ; 79F8
0079fa   0000     nop                      
0079fc   0000     nop                      
0079fe   0000     nop                      
007a00   0000     nop                          data 0x0000, 0x0000, 0x0000, 0x0000 ; 7A00
007a02   0000     nop                      
007a04   0000     nop                      
007a06   0000     nop                      
007a08   0000     nop                          data 0x0000, 0x0000, 0x0000, 0x0000 ; 7A08
007a0a   0000     nop                      
007a0c   0000     nop                      
007a0e   0000     nop                      
007a10   0000     nop                          data 0x0000, 0x0000, 0x0000, 0x0000 ; 7A10
007a12   0000     nop                      
007a14   0000     nop                      
007a16   0000     nop                      
007a18   0000     nop                          data 0x0000, 0x0000, 0x0000, 0x0000 ; 7A18
007a1a   0000     nop                      
007a1c   0000     nop                      
007a1e   0000     nop                      
007a20   0000     nop                          data 0x0000, 0x0000, 0x0000, 0x0000 ; 7A20
007a22   0000     nop                      
007a24   0000     nop                      
007a26   0000     nop                      
007a28   0000     nop                          data 0x0000, 0x0000, 0x0000, 0x0000 ; 7A28
007a2a   0000     nop                      
007a2c   0000     nop                      
007a2e   0000     nop                      
007a30   0000     nop                          data 0x0000, 0x0000, 0x0000, 0x0000 ; 7A30
007a32   0000     nop                      
007a34   0000     nop                      
007a36   0000     nop                      
007a38   0000     nop                          data 0x0000, 0x0000, 0x0000, 0x0000 ; 7A38
007a3a   0000     nop                      
007a3c   0000     nop                      
007a3e   0000     nop                      
007a40   0000     nop                          data 0x0000, 0x0000, 0x0000, 0x0000 ; 7A40
007a42   0000     nop                      
007a44   0000     nop                      
007a46   0000     nop                      
007a48   0000     nop                          data 0x0000, 0x0000, 0x0000, 0x0000 ; 7A48
007a4a   0000     nop                      
007a4c   0000     nop                      
007a4e   0000     nop                      
007a50   0000     nop                          data 0x0000, 0x0000, 0x0000, 0x0000 ; 7A50
007a52   0000     nop                      
007a54   0000     nop                      
007a56   0000     nop                      
007a58   0000     nop                          data 0x0000, 0x0000, 0x0000, 0x0000 ; 7A58
007a5a   0000     nop                      
007a5c   0000     nop                      
007a5e   0000     nop                      
007a60   0000     nop                          data 0x0000, 0x0000, 0x0000, 0x0000 ; 7A60
007a62   0000     nop                      
007a64   0000     nop                      
007a66   0000     nop                      
007a68   0000     nop                          data 0x0000, 0x0000, 0x0000, 0x0000 ; 7A68
007a6a   0000     nop                      
007a6c   0000     nop                      
007a6e   0000     nop                      
007a70   0000     nop                          data 0x0000, 0x0000, 0x0000, 0x0000 ; 7A70
007a72   0000     nop                      
007a74   0000     nop                      
007a76   0000     nop                      
007a78   0000     nop                          data 0x0000, 0x0000, 0x0000, 0x0000 ; 7A78
007a7a   0000     nop                      
007a7c   0000     nop                      
007a7e   0000     nop                      
007a80   0000     nop                          data 0x0000, 0x0000, 0x0000, 0x0000 ; 7A80
007a82   0000     nop                      
007a84   0000     nop                      
007a86   0000     nop                      
007a88   0000     nop                          data 0x0000, 0x0000, 0x0000, 0x0000 ; 7A88
007a8a   0000     nop                      
007a8c   0000     nop                      
007a8e   0000     nop                      
007a90   0000     nop                          data 0x0000, 0x0000, 0x0000, 0x0000 ; 7A90
007a92   0000     nop                      
007a94   0000     nop                      
007a96   0000     nop                      
007a98   0000     nop                          data 0x0000, 0x0000, 0x0000, 0x0000 ; 7A98
007a9a   0000     nop                      
007a9c   0000     nop                      
007a9e   0000     nop                      
007aa0   0000     nop                          data 0x0000, 0x0000, 0x0000, 0x0000 ; 7AA0
007aa2   0000     nop                      
007aa4   0000     nop                      
007aa6   0000     nop                      
007aa8   0000     nop                          data 0x0000, 0x0000, 0x0000, 0x0000 ; 7AA8
007aaa   0000     nop                      
007aac   0000     nop                      
007aae   0000     nop                      
007ab0   0000     nop                          data 0x0000, 0x0000, 0x0000, 0x0000 ; 7AB0
007ab2   0000     nop                      
007ab4   0000     nop                      
007ab6   0000     nop                      
007ab8   0000     nop                          data 0x0000, 0x0000, 0x0000, 0x0000 ; 7AB8
007aba   0000     nop                      
007abc   0000     nop                      
007abe   0000     nop                      
007ac0   0000     nop                          data 0x0000, 0x0000, 0x0000, 0x0000 ; 7AC0
007ac2   0000     nop                      
007ac4   0000     nop                      
007ac6   0000     nop                      
007ac8   0000     nop                          data 0x0000, 0x0000, 0x0000, 0x0000 ; 7AC8
007aca   0000     nop                      
007acc   0000     nop                      
007ace   0000     nop                      
007ad0   0000     nop                          data 0x0000, 0x0000, 0x0000, 0x0000 ; 7AD0
007ad2   0000     nop                      
007ad4   0000     nop                      
007ad6   0000     nop                      
007ad8   0000     nop                          data 0x0000, 0x0000, 0x0000, 0x0000 ; 7AD8
007ada   0000     nop                      
007adc   0000     nop                      
007ade   0000     nop                      
007ae0   0000     nop                          data 0x0000, 0x0000, 0x0000, 0x0000 ; 7AE0
007ae2   0000     nop                      
007ae4   0000     nop                      
007ae6   0000     nop                      
007ae8   0000     nop                          data 0x0000, 0x0000, 0x0000, 0x0000 ; 7AE8
007aea   0000     nop                      
007aec   0000     nop                      
007aee   0000     nop                      
007af0   0000     nop                          data 0x0000, 0x0000, 0x0000, 0x0000 ; 7AF0
007af2   0000     nop                      
007af4   0000     nop                      
007af6   0000     nop                      
007af8   0000     nop                          data 0x0000, 0x0000, 0x0000, 0x0000 ; 7AF8
007afa   0000     nop                      
007afc   0000     nop                      
007afe   0000     nop                      
007b00   0000     nop                          data 0x0000, 0x0000, 0x0000, 0x0000 ; 7B00
007b02   0000     nop                      
007b04   0000     nop                      
007b06   0000     nop                      
007b08   0000     nop                          data 0x0000, 0x0000, 0x0000, 0x0000 ; 7B08
007b0a   0000     nop                      
007b0c   0000     nop                      
007b0e   0000     nop                      
007b10   0000     nop                          data 0x0000, 0x0000, 0x0000, 0x0000 ; 7B10
007b12   0000     nop                      
007b14   0000     nop                      
007b16   0000     nop                      
007b18   0000     nop                          data 0x0000, 0x0000, 0x0000, 0x0000 ; 7B18
007b1a   0000     nop                      
007b1c   0000     nop                      
007b1e   0000     nop                      
007b20   0000     nop                          data 0x0000, 0x0000, 0x0000, 0x0000 ; 7B20
007b22   0000     nop                      
007b24   0000     nop                      
007b26   0000     nop                      
007b28   0000     nop                          data 0x0000, 0x0000, 0x0000, 0x0000 ; 7B28
007b2a   0000     nop                      
007b2c   0000     nop                      
007b2e   0000     nop                      
007b30   0000     nop                          data 0x0000, 0x0000, 0x0000, 0x0000 ; 7B30
007b32   0000     nop                      
007b34   0000     nop                      
007b36   0000     nop                      
007b38   0000     nop                          data 0x0000, 0x0000, 0x0000, 0x0000 ; 7B38
007b3a   0000     nop                      
007b3c   0000     nop                      
007b3e   0000     nop                      
007b40   0000     nop                          data 0x0000, 0x0000, 0x0000, 0x0000 ; 7B40
007b42   0000     nop                      
007b44   0000     nop                      
007b46   0000     nop                      
007b48   0000     nop                          data 0x0000, 0x0000, 0x0000, 0x0000 ; 7B48
007b4a   0000     nop                      
007b4c   0000     nop                      
007b4e   0000     nop                      
007b50   0000     nop                          data 0x0000, 0x0000, 0x0000, 0x0000 ; 7B50
007b52   0000     nop                      
007b54   0000     nop                      
007b56   0000     nop                      
007b58   0000     nop                          data 0x0000, 0x0000, 0x0000, 0x0000 ; 7B58
007b5a   0000     nop                      
007b5c   0000     nop                      
007b5e   0000     nop                      
007b60   0000     nop                          data 0x0000, 0x0000, 0x0000, 0x0000 ; 7B60
007b62   0000     nop                      
007b64   0000     nop                      
007b66   0000     nop                      
007b68   0000     nop                          data 0x0000, 0x0000, 0x0000, 0x0000 ; 7B68
007b6a   0000     nop                      
007b6c   0000     nop                      
007b6e   0000     nop                      
007b70   0000     nop                          data 0x0000, 0x0000, 0x0000, 0x0000 ; 7B70
007b72   0000     nop                      
007b74   0000     nop                      
007b76   0000     nop                      
007b78   0000     nop                          data 0x0000, 0x0000, 0x0000, 0x0000 ; 7B78
007b7a   0000     nop                      
007b7c   0000     nop                      
007b7e   0000     nop                      
007b80   0000     nop                          data 0x0000, 0x0000, 0x0000, 0x0000 ; 7B80
007b82   0000     nop                      
007b84   0000     nop                      
007b86   0000     nop                      
007b88   0000     nop                          data 0x0000, 0x0000, 0x0000, 0x0000 ; 7B88
007b8a   0000     nop                      
007b8c   0000     nop                      
007b8e   0000     nop                      
007b90   0000     nop                          data 0x0000, 0x0000, 0x0000, 0x0000 ; 7B90
007b92   0000     nop                      
007b94   0000     nop                      
007b96   0000     nop                      
007b98   0000     nop                          data 0x0000, 0x0000, 0x0000, 0x0000 ; 7B98
007b9a   0000     nop                      
007b9c   0000     nop                      
007b9e   0000     nop                      
007ba0   0000     nop                          data 0x0000, 0x0000, 0x0000, 0x0000 ; 7BA0
007ba2   0000     nop                      
007ba4   0000     nop                      
007ba6   0000     nop                      
007ba8   0000     nop                          data 0x0000, 0x0000, 0x0000, 0x0000 ; 7BA8
007baa   0000     nop                      
007bac   0000     nop                      
007bae   0000     nop                      
007bb0   0000     nop                          data 0x0000, 0x0000, 0x0000, 0x0000 ; 7BB0
007bb2   0000     nop                      
007bb4   0000     nop                      
007bb6   0000     nop                      
007bb8   0000     nop                          data 0x0000, 0x0000, 0x0000, 0x0000 ; 7BB8
007bba   0000     nop                      
007bbc   0000     nop                      
007bbe   0000     nop                      
007bc0   0000     nop                          data 0x0000, 0x0000, 0x0000, 0x0000 ; 7BC0
007bc2   0000     nop                      
007bc4   0000     nop                      
007bc6   0000     nop                      
007bc8   0000     nop                          data 0x0000, 0x0000, 0x0000, 0x0000 ; 7BC8
007bca   0000     nop                      
007bcc   0000     nop                      
007bce   0000     nop                      
007bd0   0000     nop                          data 0x0000, 0x0000, 0x0000, 0x0000 ; 7BD0
007bd2   0000     nop                      
007bd4   0000     nop                      
007bd6   0000     nop                      
007bd8   0000     nop                          data 0x0000, 0x0000, 0x0000, 0x0000 ; 7BD8
007bda   0000     nop                      
007bdc   0000     nop                      
007bde   0000     nop                      
007be0   0000     nop                          data 0x0000, 0x0000, 0x0000, 0x0000 ; 7BE0
007be2   0000     nop                      
007be4   0000     nop                      
007be6   0000     nop                      
007be8   0000     nop                          data 0x0000, 0x0000, 0x0000, 0x0000 ; 7BE8
007bea   0000     nop                      
007bec   0000     nop                      
007bee   0000     nop                      
007bf0   0000     nop                          data 0x0000, 0x0000, 0x0000, 0x0000 ; 7BF0
007bf2   0000     nop                      
007bf4   0000     nop                      
007bf6   0000     nop                      
007bf8   0000     nop                          data 0x0000, 0x0000, 0x0000, 0x0000 ; 7BF8
007bfa   0000     nop                      
007bfc   0000     nop                      
007bfe   0000     nop                      
007c00   0000     nop                          data 0x0000, 0x0000, 0x0000, 0x0000 ; 7C00
007c02   0000     nop                      
007c04   0000     nop                      
007c06   0000     nop                      
007c08   0000     nop                          data 0x0000, 0x0000, 0x0000, 0x0000 ; 7C08
007c0a   0000     nop                      
007c0c   0000     nop                      
007c0e   0000     nop                      
007c10   0000     nop                          data 0x0000, 0x0000, 0x0000, 0x0000 ; 7C10
007c12   0000     nop                      
007c14   0000     nop                      
007c16   0000     nop                      
007c18   0000     nop                          data 0x0000, 0x0000, 0x0000, 0x0000 ; 7C18
007c1a   0000     nop                      
007c1c   0000     nop                      
007c1e   0000     nop                      
007c20   0000     nop                          data 0x0000, 0x0000, 0x0000, 0x0000 ; 7C20
007c22   0000     nop                      
007c24   0000     nop                      
007c26   0000     nop                      
007c28   0000     nop                          data 0x0000, 0x0000, 0x0000, 0x0000 ; 7C28
007c2a   0000     nop                      
007c2c   0000     nop                      
007c2e   0000     nop                      
007c30   0000     nop                          data 0x0000, 0x0000, 0x0000, 0x0000 ; 7C30
007c32   0000     nop                      
007c34   0000     nop                      
007c36   0000     nop                      
007c38   0000     nop                          data 0x0000, 0x0000, 0x0000, 0x0000 ; 7C38
007c3a   0000     nop                      
007c3c   0000     nop                      
007c3e   0000     nop                      
007c40   0000     nop                          data 0x0000, 0x0000, 0x0000, 0x0000 ; 7C40
007c42   0000     nop                      
007c44   0000     nop                      
007c46   0000     nop                      
007c48   0000     nop                          data 0x0000, 0x0000, 0x0000, 0x0000 ; 7C48
007c4a   0000     nop                      
007c4c   0000     nop                      
007c4e   0000     nop                      
007c50   0000     nop                          data 0x0000, 0x0000, 0x0000, 0x0000 ; 7C50
007c52   0000     nop                      
007c54   0000     nop                      
007c56   0000     nop                      
007c58   0000     nop                          data 0x0000, 0x0000, 0x0000, 0x0000 ; 7C58
007c5a   0000     nop                      
007c5c   0000     nop                      
007c5e   0000     nop                      
007c60   0000     nop                          data 0x0000, 0x0000, 0x0000, 0x0000 ; 7C60
007c62   0000     nop                      
007c64   0000     nop                      
007c66   0000     nop                      
007c68   0000     nop                          data 0x0000, 0x0000, 0x0000, 0x0000 ; 7C68
007c6a   0000     nop                      
007c6c   0000     nop                      
007c6e   0000     nop                      
007c70   0000     nop                          data 0x0000, 0x0000, 0x0000, 0x0000 ; 7C70
007c72   0000     nop                      
007c74   0000     nop                      
007c76   0000     nop                      
007c78   0000     nop                          data 0x0000, 0x0000, 0x0000, 0x0000 ; 7C78
007c7a   0000     nop                      
007c7c   0000     nop                      
007c7e   0000     nop                      
007c80   0000     nop                          data 0x0000, 0x0000, 0x0000, 0x0000 ; 7C80
007c82   0000     nop                      
007c84   0000     nop                      
007c86   0000     nop                      
007c88   0000     nop                          data 0x0000, 0x0000, 0x0000, 0x0000 ; 7C88
007c8a   0000     nop                      
007c8c   0000     nop                      
007c8e   0000     nop                      
007c90   0000     nop                          data 0x0000, 0x0000, 0x0000, 0x0000 ; 7C90
007c92   0000     nop                      
007c94   0000     nop                      
007c96   0000     nop                      
007c98   0000     nop                          data 0x0000, 0x0000, 0x0000, 0x0000 ; 7C98
007c9a   0000     nop                      
007c9c   0000     nop                      
007c9e   0000     nop                      
007ca0   0000     nop                          data 0x0000, 0x0000, 0x0000, 0x0000 ; 7CA0
007ca2   0000     nop                      
007ca4   0000     nop                      
007ca6   0000     nop                      
007ca8   0000     nop                          data 0x0000, 0x0000, 0x0000, 0x0000 ; 7CA8
007caa   0000     nop                      
007cac   0000     nop                      
007cae   0000     nop                      
007cb0   0000     nop                          data 0x0000, 0x0000, 0x0000, 0x0000 ; 7CB0
007cb2   0000     nop                      
007cb4   0000     nop                      
007cb6   0000     nop                      
007cb8   0000     nop                          data 0x0000, 0x0000, 0x0000, 0x0000 ; 7CB8
007cba   0000     nop                      
007cbc   0000     nop                      
007cbe   0000     nop                      
007cc0   0000     nop                          data 0x0000, 0x0000, 0x0000, 0x0000 ; 7CC0
007cc2   0000     nop                      
007cc4   0000     nop                      
007cc6   0000     nop                      
007cc8   0000     nop                          data 0x0000, 0x0000, 0x0000, 0x0000 ; 7CC8
007cca   0000     nop                      
007ccc   0000     nop                      
007cce   0000     nop                      
007cd0   0000     nop                          data 0x0000, 0x0000, 0x0000, 0x0000 ; 7CD0
007cd2   0000     nop                      
007cd4   0000     nop                      
007cd6   0000     nop                      
007cd8   0000     nop                          data 0x0000, 0x0000, 0x0000, 0x0000 ; 7CD8
007cda   0000     nop                      
007cdc   0000     nop                      
007cde   0000     nop                      
007ce0   0000     nop                          data 0x0000, 0x0000, 0x0000, 0x0000 ; 7CE0
007ce2   0000     nop                      
007ce4   0000     nop                      
007ce6   0000     nop                      
007ce8   0000     nop                          data 0x0000, 0x0000, 0x0000, 0x0000 ; 7CE8
007cea   0000     nop                      
007cec   0000     nop                      
007cee   0000     nop                      
007cf0   0000     nop                          data 0x0000, 0x0000, 0x0000, 0x0000 ; 7CF0
007cf2   0000     nop                      
007cf4   0000     nop                      
007cf6   0000     nop                      
007cf8   0000     nop                          data 0x0000, 0x0000, 0x0000, 0x0000 ; 7CF8
007cfa   0000     nop                      
007cfc   0000     nop                      
007cfe   0000     nop                      
007d00   0000     nop                          data 0x0000, 0x0000, 0x0000, 0x0000 ; 7D00
007d02   0000     nop                      
007d04   0000     nop                      
007d06   0000     nop                      
007d08   0000     nop                          data 0x0000, 0x0000, 0x0000, 0x0000 ; 7D08
007d0a   0000     nop                      
007d0c   0000     nop                      
007d0e   0000     nop                      
007d10   0000     nop                          data 0x0000, 0x0000, 0x0000, 0x0000 ; 7D10
007d12   0000     nop                      
007d14   0000     nop                      
007d16   0000     nop                      
007d18   0000     nop                          data 0x0000, 0x0000, 0x0000, 0x0000 ; 7D18
007d1a   0000     nop                      
007d1c   0000     nop                      
007d1e   0000     nop                      
007d20   0000     nop                          data 0x0000, 0x0000, 0x0000, 0x0000 ; 7D20
007d22   0000     nop                      
007d24   0000     nop                      
007d26   0000     nop                      
007d28   0000     nop                          data 0x0000, 0x0000, 0x0000, 0x0000 ; 7D28
007d2a   0000     nop                      
007d2c   0000     nop                      
007d2e   0000     nop                      
007d30   0000     nop                          data 0x0000, 0x0000, 0x0000, 0x0000 ; 7D30
007d32   0000     nop                      
007d34   0000     nop                      
007d36   0000     nop                      
007d38   0000     nop                          data 0x0000, 0x0000, 0x0000, 0x0000 ; 7D38
007d3a   0000     nop                      
007d3c   0000     nop                      
007d3e   0000     nop                      
007d40   0000     nop                          data 0x0000, 0x0000, 0x0000, 0x0000 ; 7D40
007d42   0000     nop                      
007d44   0000     nop                      
007d46   0000     nop                      
007d48   0000     nop                          data 0x0000, 0x0000, 0x0000, 0x0000 ; 7D48
007d4a   0000     nop                      
007d4c   0000     nop                      
007d4e   0000     nop                      
007d50   0000     nop                          data 0x0000, 0x0000, 0x0000, 0x0000 ; 7D50
007d52   0000     nop                      
007d54   0000     nop                      
007d56   0000     nop                      
007d58   0000     nop                          data 0x0000, 0x0000, 0x0000, 0x0000 ; 7D58
007d5a   0000     nop                      
007d5c   0000     nop                      
007d5e   0000     nop                      
007d60   0000     nop                          data 0x0000, 0x0000, 0x0000, 0x0000 ; 7D60
007d62   0000     nop                      
007d64   0000     nop                      
007d66   0000     nop                      
007d68   0000     nop                          data 0x0000, 0x0000, 0x0000, 0x0000 ; 7D68
007d6a   0000     nop                      
007d6c   0000     nop                      
007d6e   0000     nop                      
007d70   0000     nop                          data 0x0000, 0x0000, 0x0000, 0x0000 ; 7D70
007d72   0000     nop                      
007d74   0000     nop                      
007d76   0000     nop                      
007d78   0000     nop                          data 0x0000, 0x0000, 0x0000, 0x0000 ; 7D78
007d7a   0000     nop                      
007d7c   0000     nop                      
007d7e   0000     nop                      
007d80   0000     nop                          data 0x0000, 0x0000, 0x0000, 0x0000 ; 7D80
007d82   0000     nop                      
007d84   0000     nop                      
007d86   0000     nop                      
007d88   0000     nop                          data 0x0000, 0x0000, 0x0000, 0x0000 ; 7D88
007d8a   0000     nop                      
007d8c   0000     nop                      
007d8e   0000     nop                      
007d90   0000     nop                          data 0x0000, 0x0000, 0x0000, 0x0000 ; 7D90
007d92   0000     nop                      
007d94   0000     nop                      
007d96   0000     nop                      
007d98   0000     nop                          data 0x0000, 0x0000, 0x0000, 0x0000 ; 7D98
007d9a   0000     nop                      
007d9c   0000     nop                      
007d9e   0000     nop                      
007da0   0000     nop                          data 0x0000, 0x0000, 0x0000, 0x0000 ; 7DA0
007da2   0000     nop                      
007da4   0000     nop                      
007da6   0000     nop                      
007da8   0000     nop                          data 0x0000, 0x0000, 0x0000, 0x0000 ; 7DA8
007daa   0000     nop                      
007dac   0000     nop                      
007dae   0000     nop                      
007db0   0000     nop                          data 0x0000, 0x0000, 0x0000, 0x0000 ; 7DB0
007db2   0000     nop                      
007db4   0000     nop                      
007db6   0000     nop                      
007db8   0000     nop                          data 0x0000, 0x0000, 0x0000, 0x0000 ; 7DB8
007dba   0000     nop                      
007dbc   0000     nop                      
007dbe   0000     nop                      
007dc0   0000     nop                          data 0x0000, 0x0000, 0x0000, 0x0000 ; 7DC0
007dc2   0000     nop                      
007dc4   0000     nop                      
007dc6   0000     nop                      
007dc8   0000     nop                          data 0x0000, 0x0000, 0x0000, 0x0000 ; 7DC8
007dca   0000     nop                      
007dcc   0000     nop                      
007dce   0000     nop                      
007dd0   0000     nop                          data 0x0000, 0x0000, 0x0000, 0x0000 ; 7DD0
007dd2   0000     nop                      
007dd4   0000     nop                      
007dd6   0000     nop                      
007dd8   0000     nop                          data 0x0000, 0x0000, 0x0000, 0x0000 ; 7DD8
007dda   0000     nop                      
007ddc   0000     nop                      
007dde   0000     nop                      
007de0   0000     nop                          data 0x0000, 0x0000, 0x0000, 0x0000 ; 7DE0
007de2   0000     nop                      
007de4   0000     nop                      
007de6   0000     nop                      
007de8   0000     nop                          data 0x0000, 0x0000, 0x0000, 0x0000 ; 7DE8
007dea   0000     nop                      
007dec   0000     nop                      
007dee   0000     nop                      
007df0   0000     nop                          data 0x0000, 0x0000, 0x0000, 0x0000 ; 7DF0
007df2   0000     nop                      
007df4   0000     nop                      
007df6   0000     nop                      
007df8   0000     nop                          data 0x0000, 0x0000, 0x0000, 0x0000 ; 7DF8
007dfa   0000     nop                      
007dfc   0000     nop                      
007dfe   0000     nop                      
007e00   0000     nop                          data 0x0000, 0x0000, 0x0000, 0x0000 ; 7E00
007e02   0000     nop                      
007e04   0000     nop                      
007e06   0000     nop                      
007e08   0000     nop                          data 0x0000, 0x0000, 0x0000, 0x0000 ; 7E08
007e0a   0000     nop                      
007e0c   0000     nop                      
007e0e   0000     nop                      
007e10   0000     nop                          data 0x0000, 0x0000, 0x0000, 0x0000 ; 7E10
007e12   0000     nop                      
007e14   0000     nop                      
007e16   0000     nop                      
007e18   0000     nop                          data 0x0000, 0x0000, 0x0000, 0x0000 ; 7E18
007e1a   0000     nop                      
007e1c   0000     nop                      
007e1e   0000     nop                      
007e20   0000     nop                          data 0x0000, 0x0000, 0x0000, 0x0000 ; 7E20
007e22   0000     nop                      
007e24   0000     nop                      
007e26   0000     nop                      
007e28   0000     nop                          data 0x0000, 0x0000, 0x0000, 0x0000 ; 7E28
007e2a   0000     nop                      
007e2c   0000     nop                      
007e2e   0000     nop                      
007e30   0000     nop                          data 0x0000, 0x0000, 0x0000, 0x0000 ; 7E30
007e32   0000     nop                      
007e34   0000     nop                      
007e36   0000     nop                      
007e38   0000     nop                          data 0x0000, 0x0000, 0x0000, 0x0000 ; 7E38
007e3a   0000     nop                      
007e3c   0000     nop                      
007e3e   0000     nop                      
007e40   0000     nop                          data 0x0000, 0x0000, 0x0000, 0x0000 ; 7E40
007e42   0000     nop                      
007e44   0000     nop                      
007e46   0000     nop                      
007e48   0000     nop                          data 0x0000, 0x0000, 0x0000, 0x0000 ; 7E48
007e4a   0000     nop                      
007e4c   0000     nop                      
007e4e   0000     nop                      
007e50   0000     nop                          data 0x0000, 0x0000, 0x0000, 0x0000 ; 7E50
007e52   0000     nop                      
007e54   0000     nop                      
007e56   0000     nop                      
007e58   0000     nop                          data 0x0000, 0x0000, 0x0000, 0x0000 ; 7E58
007e5a   0000     nop                      
007e5c   0000     nop                      
007e5e   0000     nop                      
007e60   0000     nop                          data 0x0000, 0x0000, 0x0000, 0x0000 ; 7E60
007e62   0000     nop                      
007e64   0000     nop                      
007e66   0000     nop                      
007e68   0000     nop                          data 0x0000, 0x0000, 0x0000, 0x0000 ; 7E68
007e6a   0000     nop                      
007e6c   0000     nop                      
007e6e   0000     nop                      
007e70   0000     nop                          data 0x0000, 0x0000, 0x0000, 0x0000 ; 7E70
007e72   0000     nop                      
007e74   0000     nop                      
007e76   0000     nop                      
007e78   0000     nop                          data 0x0000, 0x0000, 0x0000, 0x0000 ; 7E78
007e7a   0000     nop                      
007e7c   0000     nop                      
007e7e   0000     nop                      
007e80   0000     nop                          data 0x0000, 0x0000, 0x0000, 0x0000 ; 7E80
007e82   0000     nop                      
007e84   0000     nop                      
007e86   0000     nop                      
007e88   0000     nop                          data 0x0000, 0x0000, 0x0000, 0x0000 ; 7E88
007e8a   0000     nop                      
007e8c   0000     nop                      
007e8e   0000     nop                      
007e90   0000     nop                          data 0x0000, 0x0000, 0x0000, 0x0000 ; 7E90
007e92   0000     nop                      
007e94   0000     nop                      
007e96   0000     nop                      
007e98   0000     nop                          data 0x0000, 0x0000, 0x0000, 0x0000 ; 7E98
007e9a   0000     nop                      
007e9c   0000     nop                      
007e9e   0000     nop                      
007ea0   0000     nop                          data 0x0000, 0x0000, 0x0000, 0x0000 ; 7EA0
007ea2   0000     nop                      
007ea4   0000     nop                      
007ea6   0000     nop                      
007ea8   0000     nop                          data 0x0000, 0x0000, 0x0000, 0x0000 ; 7EA8
007eaa   0000     nop                      
007eac   0000     nop                      
007eae   0000     nop                      
007eb0   0000     nop                          data 0x0000, 0x0000, 0x0000, 0x0000 ; 7EB0
007eb2   0000     nop                      
007eb4   0000     nop                      
007eb6   0000     nop                      
007eb8   0000     nop                          data 0x0000, 0x0000, 0x0000, 0x0000 ; 7EB8
007eba   0000     nop                      
007ebc   0000     nop                      
007ebe   0000     nop                      
007ec0   0000     nop                          data 0x0000, 0x0000, 0x0000, 0x0000 ; 7EC0
007ec2   0000     nop                      
007ec4   0000     nop                      
007ec6   0000     nop                      
007ec8   0000     nop                          data 0x0000, 0x0000, 0x0000, 0x0000 ; 7EC8
007eca   0000     nop                      
007ecc   0000     nop                      
007ece   0000     nop                      
007ed0   0000     nop                          data 0x0000, 0x0000, 0x0000, 0x0000 ; 7ED0
007ed2   0000     nop                      
007ed4   0000     nop                      
007ed6   0000     nop                      
007ed8   0000     nop                          data 0x0000, 0x0000, 0x0000, 0x0000 ; 7ED8
007eda   0000     nop                      
007edc   0000     nop                      
007ede   0000     nop                      
007ee0   0000     nop                          data 0x0000, 0x0000, 0x0000, 0x0000 ; 7EE0
007ee2   0000     nop                      
007ee4   0000     nop                      
007ee6   0000     nop                      
007ee8   0000     nop                          data 0x0000, 0x0000, 0x0000, 0x0000 ; 7EE8
007eea   0000     nop                      
007eec   0000     nop                      
007eee   0000     nop                      
007ef0   0000     nop                          data 0x0000, 0x0000, 0x0000, 0x0000 ; 7EF0
007ef2   0000     nop                      
007ef4   0000     nop                      
007ef6   0000     nop                      
007ef8   0000     nop                          data 0x0000, 0x0000, 0x0000, 0x0000 ; 7EF8
007efa   0000     nop                      
007efc   0000     nop                      
007efe   0000     nop                      
007f00   0000     nop                          data 0x0000, 0x0000, 0x0000, 0x0000 ; 7F00
007f02   0000     nop                      
007f04   0000     nop                      
007f06   0000     nop                      
007f08   0000     nop                          data 0x0000, 0x0000, 0x0000, 0x0000 ; 7F08
007f0a   0000     nop                      
007f0c   0000     nop                      
007f0e   0000     nop                      
007f10   0000     nop                          data 0x0000, 0x0000, 0x0000, 0x0000 ; 7F10
007f12   0000     nop                      
007f14   0000     nop                      
007f16   0000     nop                      
007f18   0000     nop                          data 0x0000, 0x0000, 0x0000, 0x0000 ; 7F18
007f1a   0000     nop                      
007f1c   0000     nop                      
007f1e   0000     nop                      
007f20   0000     nop                          data 0x0000, 0x0000, 0x0000, 0x0000 ; 7F20
007f22   0000     nop                      
007f24   0000     nop                      
007f26   0000     nop                      
007f28   0000     nop                          data 0x0000, 0x0000, 0x0000, 0x0000 ; 7F28
007f2a   0000     nop                      
007f2c   0000     nop                      
007f2e   0000     nop                      
007f30   0000     nop                          data 0x0000, 0x0000, 0x0000, 0x0000 ; 7F30
007f32   0000     nop                      
007f34   0000     nop                      
007f36   0000     nop                      
007f38   0000     nop                          data 0x0000, 0x0000, 0x0000, 0x0000 ; 7F38
007f3a   0000     nop                      
007f3c   0000     nop                      
007f3e   0000     nop                      
007f40   0000     nop                          data 0x0000, 0x0000, 0x0000, 0x0000 ; 7F40
007f42   0000     nop                      
007f44   0000     nop                      
007f46   0000     nop                      
007f48   0000     nop                          data 0x0000, 0x0000, 0x0000, 0x0000 ; 7F48
007f4a   0000     nop                      
007f4c   0000     nop                      
007f4e   0000     nop                      
007f50   0000     nop                          data 0x0000, 0x0000, 0x0000, 0x0000 ; 7F50
007f52   0000     nop                      
007f54   0000     nop                      
007f56   0000     nop                      
007f58   0000     nop                          data 0x0000, 0x0000, 0x0000, 0x0000 ; 7F58
007f5a   0000     nop                      
007f5c   0000     nop                      
007f5e   0000     nop                      
007f60   0000     nop                          data 0x0000, 0x0000, 0x0000, 0x0000 ; 7F60
007f62   0000     nop                      
007f64   0000     nop                      
007f66   0000     nop                      
007f68   0000     nop                          data 0x0000, 0x0000, 0x0000, 0x0000 ; 7F68
007f6a   0000     nop                      
007f6c   0000     nop                      
007f6e   0000     nop                      
007f70   0000     nop                          data 0x0000, 0x0000, 0x0000, 0x0000 ; 7F70
007f72   0000     nop                      
007f74   0000     nop                      
007f76   0000     nop                      
007f78   0000     nop                          data 0x0000, 0x0000, 0x0000, 0x0000 ; 7F78
007f7a   0000     nop                      
007f7c   0000     nop                      
007f7e   0000     nop                      
007f80   0000     nop                          data 0x0000, 0x0000, 0x0000, 0x0000 ; 7F80
007f82   0000     nop                      
007f84   0000     nop                      
007f86   0000     nop                      
007f88   0000     nop                          data 0x0000, 0x0000, 0x0000, 0x0000 ; 7F88
007f8a   0000     nop                      
007f8c   0000     nop                      
007f8e   0000     nop                      
007f90   0000     nop                          data 0x0000, 0x0000, 0x0000, 0x0000 ; 7F90
007f92   0000     nop                      
007f94   0000     nop                      
007f96   0000     nop                      
007f98   0000     nop                          data 0x0000, 0x0000, 0x0000, 0x0000 ; 7F98
007f9a   0000     nop                      
007f9c   0000     nop                      
007f9e   0000     nop                      
007fa0   0000     nop                          data 0x0000, 0x0000, 0x0000, 0x0000 ; 7FA0
007fa2   0000     nop                      
007fa4   0000     nop                      
007fa6   0000     nop                      
007fa8   0000     nop                          data 0x0000, 0x0000, 0x0000, 0x0000 ; 7FA8
007faa   0000     nop                      
007fac   0000     nop                      
007fae   0000     nop                      
007fb0   0000     nop                          data 0x0000, 0x0000, 0x0000, 0x0000 ; 7FB0
007fb2   0000     nop                      
007fb4   0000     nop                      
007fb6   0000     nop                      
007fb8   0000     nop                          data 0x0000, 0x0000, 0x0000, 0x0000 ; 7FB8
007fba   0000     nop                      
007fbc   0000     nop                      
007fbe   0000     nop                      
007fc0   0000     nop                          data 0x0000, 0x0000, 0x0000, 0x0000 ; 7FC0
007fc2   0000     nop                      
007fc4   0000     nop                      
007fc6   0000     nop                      
007fc8   0000     nop                          data 0x0000, 0x0000, 0x0000, 0x0000 ; 7FC8
007fca   0000     nop                      
007fcc   0000     nop                      
007fce   0000     nop                      
007fd0   0000     nop                          data 0x0000, 0x0000, 0x0000, 0x0000 ; 7FD0
007fd2   0000     nop                      
007fd4   0000     nop                      
007fd6   0000     nop                      
007fd8   0000     nop                          data 0x0000, 0x0000, 0x0000, 0x0000 ; 7FD8
007fda   0000     nop                      
007fdc   0000     nop                      
007fde   0000     nop                      
007fe0   0000     nop                          data 0x0000, 0x0000, 0x0000, 0x0000 ; 7FE0
007fe2   0000     nop                      
007fe4   0000     nop                      
007fe6   0000     nop                      
007fe8   0000     nop                          data 0x0000, 0x0000, 0x0000, 0x0000 ; 7FE8
007fea   0000     nop                      
007fec   0000     nop                      
007fee   0000     nop                      
007ff0   0000     nop                          data 0x0000, 0x0000, 0x0000, 0x0000 ; 7FF0
007ff2   0000     nop                      
007ff4   0000     nop                      
007ff6   0000     nop                      
007ff8   0000     nop                          data 0x0000, 0x0000, 0x0000, 0x0000 ; 7FF8
007ffa   0000     nop                      
007ffc   0000     nop                      
007ffe   0000     nop                      
                                           
                                               end
